
fun-text:     file format elf32-littleriscv


Disassembly of section .text:

00000000 <_start>:
       0:	00003197          	auipc	gp,0x3
       4:	a7018193          	addi	gp,gp,-1424 # 2a70 <__do_global_dtors_aux_fini_array_entry>
       8:	00003517          	auipc	a0,0x3
       c:	a7850513          	addi	a0,a0,-1416 # 2a80 <completed.1>
      10:	00003617          	auipc	a2,0x3
      14:	d9c60613          	addi	a2,a2,-612 # 2dac <_end>
      18:	40a60633          	sub	a2,a2,a0
      1c:	00000593          	li	a1,0
      20:	00001097          	auipc	ra,0x1
      24:	d50080e7          	jalr	-688(ra) # d70 <memset>
      28:	00001517          	auipc	a0,0x1
      2c:	00c50513          	addi	a0,a0,12 # 1034 <atexit>
      30:	00050a63          	beqz	a0,44 <_start+0x44>
      34:	00002517          	auipc	a0,0x2
      38:	1f850513          	addi	a0,a0,504 # 222c <__libc_fini_array>
      3c:	00001097          	auipc	ra,0x1
      40:	ff8080e7          	jalr	-8(ra) # 1034 <atexit>
      44:	00001097          	auipc	ra,0x1
      48:	c98080e7          	jalr	-872(ra) # cdc <__libc_init_array>
      4c:	00012503          	lw	a0,0(sp)
      50:	00410593          	addi	a1,sp,4
      54:	00000613          	li	a2,0
      58:	00000097          	auipc	ra,0x0
      5c:	094080e7          	jalr	148(ra) # ec <main>
      60:	00000317          	auipc	t1,0x0
      64:	34430067          	jr	836(t1) # 3a4 <exit>

00000068 <__do_global_dtors_aux>:
      68:	00003797          	auipc	a5,0x3
      6c:	a187c783          	lbu	a5,-1512(a5) # 2a80 <completed.1>
      70:	04079863          	bnez	a5,c0 <__do_global_dtors_aux+0x58>
      74:	00000797          	auipc	a5,0x0
      78:	f8c78793          	addi	a5,a5,-116 # 0 <_start>
      7c:	02078a63          	beqz	a5,b0 <__do_global_dtors_aux+0x48>
      80:	ff010113          	addi	sp,sp,-16
      84:	00002517          	auipc	a0,0x2
      88:	49c50513          	addi	a0,a0,1180 # 2520 <__EH_FRAME_BEGIN__>
      8c:	00112623          	sw	ra,12(sp)
      90:	00000097          	auipc	ra,0x0
      94:	000000e7          	jalr	zero # 0 <_start>
      98:	00c12083          	lw	ra,12(sp)
      9c:	00100793          	li	a5,1
      a0:	00003717          	auipc	a4,0x3
      a4:	9ef70023          	sb	a5,-1568(a4) # 2a80 <completed.1>
      a8:	01010113          	addi	sp,sp,16
      ac:	00008067          	ret
      b0:	00100793          	li	a5,1
      b4:	00003717          	auipc	a4,0x3
      b8:	9cf70623          	sb	a5,-1588(a4) # 2a80 <completed.1>
      bc:	00008067          	ret
      c0:	00008067          	ret

000000c4 <frame_dummy>:
      c4:	00000797          	auipc	a5,0x0
      c8:	f3c78793          	addi	a5,a5,-196 # 0 <_start>
      cc:	00078e63          	beqz	a5,e8 <frame_dummy+0x24>
      d0:	00003597          	auipc	a1,0x3
      d4:	9b458593          	addi	a1,a1,-1612 # 2a84 <object.0>
      d8:	00002517          	auipc	a0,0x2
      dc:	44850513          	addi	a0,a0,1096 # 2520 <__EH_FRAME_BEGIN__>
      e0:	00000317          	auipc	t1,0x0
      e4:	00000067          	jr	zero # 0 <_start>
      e8:	00008067          	ret

000000ec <main>:
      ec:	ff010113          	addi	sp,sp,-16
      f0:	00812423          	sw	s0,8(sp)
      f4:	00912223          	sw	s1,4(sp)
      f8:	01212023          	sw	s2,0(sp)
      fc:	00112623          	sw	ra,12(sp)
     100:	00000413          	li	s0,0
     104:	00002937          	lui	s2,0x2
     108:	010004b7          	lui	s1,0x1000
     10c:	00040593          	mv	a1,s0
     110:	50c90513          	addi	a0,s2,1292 # 250c <__errno+0xc>
     114:	00000097          	auipc	ra,0x0
     118:	09c080e7          	jalr	156(ra) # 1b0 <printString>
     11c:	00000097          	auipc	ra,0x0
     120:	1c8080e7          	jalr	456(ra) # 2e4 <reset>
     124:	fff48793          	addi	a5,s1,-1 # ffffff <_end+0xffd253>
     128:	00078713          	mv	a4,a5
     12c:	fff78793          	addi	a5,a5,-1
     130:	fe079ee3          	bnez	a5,12c <main+0x40>
     134:	00e40433          	add	s0,s0,a4
     138:	fd5ff06f          	j	10c <main+0x20>

0000013c <printCharPos>:
     13c:	100002b7          	lui	t0,0x10000
     140:	00b282b3          	add	t0,t0,a1
     144:	00050313          	mv	t1,a0
     148:	00060393          	mv	t2,a2
     14c:	01831313          	slli	t1,t1,0x18
     150:	00736333          	or	t1,t1,t2
     154:	0062a023          	sw	t1,0(t0) # 10000000 <_end+0xfffd254>
     158:	00008067          	ret

0000015c <printColorChar>:
     15c:	ff010113          	addi	sp,sp,-16
     160:	00912223          	sw	s1,4(sp)
     164:	000034b7          	lui	s1,0x3
     168:	00812423          	sw	s0,8(sp)
     16c:	d8c4a403          	lw	s0,-628(s1) # 2d8c <currentPos>
     170:	00058613          	mv	a2,a1
     174:	00112623          	sw	ra,12(sp)
     178:	00040593          	mv	a1,s0
     17c:	00000097          	auipc	ra,0x0
     180:	fc0080e7          	jalr	-64(ra) # 13c <printCharPos>
     184:	00140413          	addi	s0,s0,1
     188:	d884a623          	sw	s0,-628(s1)
     18c:	00c12083          	lw	ra,12(sp)
     190:	00812403          	lw	s0,8(sp)
     194:	00412483          	lw	s1,4(sp)
     198:	01010113          	addi	sp,sp,16
     19c:	00008067          	ret

000001a0 <printChar>:
     1a0:	010005b7          	lui	a1,0x1000
     1a4:	fff58593          	addi	a1,a1,-1 # ffffff <_end+0xffd253>
     1a8:	00000317          	auipc	t1,0x0
     1ac:	fb430067          	jr	-76(t1) # 15c <printColorChar>

000001b0 <printString>:
     1b0:	ff010113          	addi	sp,sp,-16
     1b4:	00812423          	sw	s0,8(sp)
     1b8:	00912223          	sw	s1,4(sp)
     1bc:	01212023          	sw	s2,0(sp)
     1c0:	00112623          	sw	ra,12(sp)
     1c4:	00050493          	mv	s1,a0
     1c8:	00058913          	mv	s2,a1
     1cc:	00000413          	li	s0,0
     1d0:	00048513          	mv	a0,s1
     1d4:	00001097          	auipc	ra,0x1
     1d8:	c78080e7          	jalr	-904(ra) # e4c <strlen>
     1dc:	00a46e63          	bltu	s0,a0,1f8 <printString+0x48>
     1e0:	00c12083          	lw	ra,12(sp)
     1e4:	00812403          	lw	s0,8(sp)
     1e8:	00412483          	lw	s1,4(sp)
     1ec:	00012903          	lw	s2,0(sp)
     1f0:	01010113          	addi	sp,sp,16
     1f4:	00008067          	ret
     1f8:	008487b3          	add	a5,s1,s0
     1fc:	0007c503          	lbu	a0,0(a5)
     200:	00090593          	mv	a1,s2
     204:	00140413          	addi	s0,s0,1
     208:	00000097          	auipc	ra,0x0
     20c:	f54080e7          	jalr	-172(ra) # 15c <printColorChar>
     210:	fc1ff06f          	j	1d0 <printString+0x20>

00000214 <printInt>:
     214:	ff010113          	addi	sp,sp,-16
     218:	00812423          	sw	s0,8(sp)
     21c:	00912223          	sw	s1,4(sp)
     220:	00112623          	sw	ra,12(sp)
     224:	00050413          	mv	s0,a0
     228:	00058493          	mv	s1,a1
     22c:	00055a63          	bgez	a0,240 <printInt+0x2c>
     230:	02d00513          	li	a0,45
     234:	00000097          	auipc	ra,0x0
     238:	f6c080e7          	jalr	-148(ra) # 1a0 <printChar>
     23c:	40800433          	neg	s0,s0
     240:	00940793          	addi	a5,s0,9
     244:	01200713          	li	a4,18
     248:	02f77063          	bgeu	a4,a5,268 <printInt+0x54>
     24c:	00a00593          	li	a1,10
     250:	00040513          	mv	a0,s0
     254:	00000097          	auipc	ra,0x0
     258:	09c080e7          	jalr	156(ra) # 2f0 <__divsi3>
     25c:	00048593          	mv	a1,s1
     260:	00000097          	auipc	ra,0x0
     264:	fb4080e7          	jalr	-76(ra) # 214 <printInt>
     268:	00a00593          	li	a1,10
     26c:	00040513          	mv	a0,s0
     270:	00000097          	auipc	ra,0x0
     274:	104080e7          	jalr	260(ra) # 374 <__modsi3>
     278:	00812403          	lw	s0,8(sp)
     27c:	00c12083          	lw	ra,12(sp)
     280:	00048593          	mv	a1,s1
     284:	00412483          	lw	s1,4(sp)
     288:	03050513          	addi	a0,a0,48
     28c:	0ff57513          	zext.b	a0,a0
     290:	01010113          	addi	sp,sp,16
     294:	00000317          	auipc	t1,0x0
     298:	ec830067          	jr	-312(t1) # 15c <printColorChar>

0000029c <newLine>:
     29c:	ff010113          	addi	sp,sp,-16
     2a0:	00912223          	sw	s1,4(sp)
     2a4:	000034b7          	lui	s1,0x3
     2a8:	00812423          	sw	s0,8(sp)
     2ac:	d8c4a403          	lw	s0,-628(s1) # 2d8c <currentPos>
     2b0:	05000593          	li	a1,80
     2b4:	00112623          	sw	ra,12(sp)
     2b8:	00040513          	mv	a0,s0
     2bc:	00000097          	auipc	ra,0x0
     2c0:	0b8080e7          	jalr	184(ra) # 374 <__modsi3>
     2c4:	40a40433          	sub	s0,s0,a0
     2c8:	05040413          	addi	s0,s0,80
     2cc:	d884a623          	sw	s0,-628(s1)
     2d0:	00c12083          	lw	ra,12(sp)
     2d4:	00812403          	lw	s0,8(sp)
     2d8:	00412483          	lw	s1,4(sp)
     2dc:	01010113          	addi	sp,sp,16
     2e0:	00008067          	ret

000002e4 <reset>:
     2e4:	000037b7          	lui	a5,0x3
     2e8:	d807a623          	sw	zero,-628(a5) # 2d8c <currentPos>
     2ec:	00008067          	ret

000002f0 <__divsi3>:
     2f0:	06054063          	bltz	a0,350 <__umodsi3+0x10>
     2f4:	0605c663          	bltz	a1,360 <__umodsi3+0x20>

000002f8 <__hidden___udivsi3>:
     2f8:	00058613          	mv	a2,a1
     2fc:	00050593          	mv	a1,a0
     300:	fff00513          	li	a0,-1
     304:	02060c63          	beqz	a2,33c <__hidden___udivsi3+0x44>
     308:	00100693          	li	a3,1
     30c:	00b67a63          	bgeu	a2,a1,320 <__hidden___udivsi3+0x28>
     310:	00c05863          	blez	a2,320 <__hidden___udivsi3+0x28>
     314:	00161613          	slli	a2,a2,0x1
     318:	00169693          	slli	a3,a3,0x1
     31c:	feb66ae3          	bltu	a2,a1,310 <__hidden___udivsi3+0x18>
     320:	00000513          	li	a0,0
     324:	00c5e663          	bltu	a1,a2,330 <__hidden___udivsi3+0x38>
     328:	40c585b3          	sub	a1,a1,a2
     32c:	00d56533          	or	a0,a0,a3
     330:	0016d693          	srli	a3,a3,0x1
     334:	00165613          	srli	a2,a2,0x1
     338:	fe0696e3          	bnez	a3,324 <__hidden___udivsi3+0x2c>
     33c:	00008067          	ret

00000340 <__umodsi3>:
     340:	00008293          	mv	t0,ra
     344:	fb5ff0ef          	jal	2f8 <__hidden___udivsi3>
     348:	00058513          	mv	a0,a1
     34c:	00028067          	jr	t0
     350:	40a00533          	neg	a0,a0
     354:	00b04863          	bgtz	a1,364 <__umodsi3+0x24>
     358:	40b005b3          	neg	a1,a1
     35c:	f9dff06f          	j	2f8 <__hidden___udivsi3>
     360:	40b005b3          	neg	a1,a1
     364:	00008293          	mv	t0,ra
     368:	f91ff0ef          	jal	2f8 <__hidden___udivsi3>
     36c:	40a00533          	neg	a0,a0
     370:	00028067          	jr	t0

00000374 <__modsi3>:
     374:	00008293          	mv	t0,ra
     378:	0005ca63          	bltz	a1,38c <__modsi3+0x18>
     37c:	00054c63          	bltz	a0,394 <__modsi3+0x20>
     380:	f79ff0ef          	jal	2f8 <__hidden___udivsi3>
     384:	00058513          	mv	a0,a1
     388:	00028067          	jr	t0
     38c:	40b005b3          	neg	a1,a1
     390:	fe0558e3          	bgez	a0,380 <__modsi3+0xc>
     394:	40a00533          	neg	a0,a0
     398:	f61ff0ef          	jal	2f8 <__hidden___udivsi3>
     39c:	40b00533          	neg	a0,a1
     3a0:	00028067          	jr	t0

000003a4 <exit>:
     3a4:	ff010113          	addi	sp,sp,-16
     3a8:	00000593          	li	a1,0
     3ac:	00812423          	sw	s0,8(sp)
     3b0:	00112623          	sw	ra,12(sp)
     3b4:	00050413          	mv	s0,a0
     3b8:	00001097          	auipc	ra,0x1
     3bc:	b40080e7          	jalr	-1216(ra) # ef8 <__call_exitprocs>
     3c0:	00003797          	auipc	a5,0x3
     3c4:	9d07a783          	lw	a5,-1584(a5) # 2d90 <__stdio_exit_handler>
     3c8:	00078463          	beqz	a5,3d0 <exit+0x2c>
     3cc:	000780e7          	jalr	a5
     3d0:	00040513          	mv	a0,s0
     3d4:	00002097          	auipc	ra,0x2
     3d8:	f9c080e7          	jalr	-100(ra) # 2370 <_exit>

000003dc <__fp_lock>:
     3dc:	00000513          	li	a0,0
     3e0:	00008067          	ret

000003e4 <stdio_exit_handler>:
     3e4:	00002617          	auipc	a2,0x2
     3e8:	14460613          	addi	a2,a2,324 # 2528 <__sglue>
     3ec:	00002597          	auipc	a1,0x2
     3f0:	93058593          	addi	a1,a1,-1744 # 1d1c <_fclose_r>
     3f4:	00002517          	auipc	a0,0x2
     3f8:	14450513          	addi	a0,a0,324 # 2538 <_impure_data>
     3fc:	00000317          	auipc	t1,0x0
     400:	3b030067          	jr	944(t1) # 7ac <_fwalk_sglue>

00000404 <cleanup_stdio>:
     404:	00452583          	lw	a1,4(a0)
     408:	ff010113          	addi	sp,sp,-16
     40c:	00812423          	sw	s0,8(sp)
     410:	00112623          	sw	ra,12(sp)
     414:	00002797          	auipc	a5,0x2
     418:	68878793          	addi	a5,a5,1672 # 2a9c <__sf>
     41c:	00050413          	mv	s0,a0
     420:	00f58663          	beq	a1,a5,42c <cleanup_stdio+0x28>
     424:	00002097          	auipc	ra,0x2
     428:	8f8080e7          	jalr	-1800(ra) # 1d1c <_fclose_r>
     42c:	00842583          	lw	a1,8(s0)
     430:	00002797          	auipc	a5,0x2
     434:	6d478793          	addi	a5,a5,1748 # 2b04 <__sf+0x68>
     438:	00f58863          	beq	a1,a5,448 <cleanup_stdio+0x44>
     43c:	00040513          	mv	a0,s0
     440:	00002097          	auipc	ra,0x2
     444:	8dc080e7          	jalr	-1828(ra) # 1d1c <_fclose_r>
     448:	00c42583          	lw	a1,12(s0)
     44c:	00002797          	auipc	a5,0x2
     450:	72078793          	addi	a5,a5,1824 # 2b6c <__sf+0xd0>
     454:	00f58e63          	beq	a1,a5,470 <cleanup_stdio+0x6c>
     458:	00040513          	mv	a0,s0
     45c:	00812403          	lw	s0,8(sp)
     460:	00c12083          	lw	ra,12(sp)
     464:	01010113          	addi	sp,sp,16
     468:	00002317          	auipc	t1,0x2
     46c:	8b430067          	jr	-1868(t1) # 1d1c <_fclose_r>
     470:	00c12083          	lw	ra,12(sp)
     474:	00812403          	lw	s0,8(sp)
     478:	01010113          	addi	sp,sp,16
     47c:	00008067          	ret

00000480 <__fp_unlock>:
     480:	00000513          	li	a0,0
     484:	00008067          	ret

00000488 <global_stdio_init.part.0>:
     488:	fe010113          	addi	sp,sp,-32
     48c:	00112e23          	sw	ra,28(sp)
     490:	00812c23          	sw	s0,24(sp)
     494:	00912a23          	sw	s1,20(sp)
     498:	00002417          	auipc	s0,0x2
     49c:	60440413          	addi	s0,s0,1540 # 2a9c <__sf>
     4a0:	01212823          	sw	s2,16(sp)
     4a4:	01312623          	sw	s3,12(sp)
     4a8:	01412423          	sw	s4,8(sp)
     4ac:	00000717          	auipc	a4,0x0
     4b0:	f3870713          	addi	a4,a4,-200 # 3e4 <stdio_exit_handler>
     4b4:	00400793          	li	a5,4
     4b8:	00800613          	li	a2,8
     4bc:	00000593          	li	a1,0
     4c0:	00002517          	auipc	a0,0x2
     4c4:	63850513          	addi	a0,a0,1592 # 2af8 <__sf+0x5c>
     4c8:	00003697          	auipc	a3,0x3
     4cc:	8ce6a423          	sw	a4,-1848(a3) # 2d90 <__stdio_exit_handler>
     4d0:	00f42623          	sw	a5,12(s0)
     4d4:	00042023          	sw	zero,0(s0)
     4d8:	00042223          	sw	zero,4(s0)
     4dc:	00042423          	sw	zero,8(s0)
     4e0:	06042223          	sw	zero,100(s0)
     4e4:	00042823          	sw	zero,16(s0)
     4e8:	00042a23          	sw	zero,20(s0)
     4ec:	00042c23          	sw	zero,24(s0)
     4f0:	00001097          	auipc	ra,0x1
     4f4:	880080e7          	jalr	-1920(ra) # d70 <memset>
     4f8:	000107b7          	lui	a5,0x10
     4fc:	00000a17          	auipc	s4,0x0
     500:	364a0a13          	addi	s4,s4,868 # 860 <__sread>
     504:	00000997          	auipc	s3,0x0
     508:	3c498993          	addi	s3,s3,964 # 8c8 <__swrite>
     50c:	00000917          	auipc	s2,0x0
     510:	44c90913          	addi	s2,s2,1100 # 958 <__sseek>
     514:	00000497          	auipc	s1,0x0
     518:	4ac48493          	addi	s1,s1,1196 # 9c0 <__sclose>
     51c:	00978793          	addi	a5,a5,9 # 10009 <_end+0xd25d>
     520:	00800613          	li	a2,8
     524:	00000593          	li	a1,0
     528:	00002517          	auipc	a0,0x2
     52c:	63850513          	addi	a0,a0,1592 # 2b60 <__sf+0xc4>
     530:	06f42a23          	sw	a5,116(s0)
     534:	03442023          	sw	s4,32(s0)
     538:	03342223          	sw	s3,36(s0)
     53c:	03242423          	sw	s2,40(s0)
     540:	02942623          	sw	s1,44(s0)
     544:	00842e23          	sw	s0,28(s0)
     548:	06042423          	sw	zero,104(s0)
     54c:	06042623          	sw	zero,108(s0)
     550:	06042823          	sw	zero,112(s0)
     554:	0c042623          	sw	zero,204(s0)
     558:	06042c23          	sw	zero,120(s0)
     55c:	06042e23          	sw	zero,124(s0)
     560:	08042023          	sw	zero,128(s0)
     564:	00001097          	auipc	ra,0x1
     568:	80c080e7          	jalr	-2036(ra) # d70 <memset>
     56c:	000207b7          	lui	a5,0x20
     570:	01278793          	addi	a5,a5,18 # 20012 <_end+0x1d266>
     574:	00002717          	auipc	a4,0x2
     578:	59070713          	addi	a4,a4,1424 # 2b04 <__sf+0x68>
     57c:	00800613          	li	a2,8
     580:	00000593          	li	a1,0
     584:	00002517          	auipc	a0,0x2
     588:	64450513          	addi	a0,a0,1604 # 2bc8 <__sf+0x12c>
     58c:	09442423          	sw	s4,136(s0)
     590:	09342623          	sw	s3,140(s0)
     594:	09242823          	sw	s2,144(s0)
     598:	08942a23          	sw	s1,148(s0)
     59c:	0cf42e23          	sw	a5,220(s0)
     5a0:	0c042823          	sw	zero,208(s0)
     5a4:	0c042a23          	sw	zero,212(s0)
     5a8:	0c042c23          	sw	zero,216(s0)
     5ac:	12042a23          	sw	zero,308(s0)
     5b0:	0e042023          	sw	zero,224(s0)
     5b4:	0e042223          	sw	zero,228(s0)
     5b8:	0e042423          	sw	zero,232(s0)
     5bc:	08e42223          	sw	a4,132(s0)
     5c0:	00000097          	auipc	ra,0x0
     5c4:	7b0080e7          	jalr	1968(ra) # d70 <memset>
     5c8:	00002797          	auipc	a5,0x2
     5cc:	5a478793          	addi	a5,a5,1444 # 2b6c <__sf+0xd0>
     5d0:	0f442823          	sw	s4,240(s0)
     5d4:	0f342a23          	sw	s3,244(s0)
     5d8:	0f242c23          	sw	s2,248(s0)
     5dc:	0e942e23          	sw	s1,252(s0)
     5e0:	01c12083          	lw	ra,28(sp)
     5e4:	0ef42623          	sw	a5,236(s0)
     5e8:	01812403          	lw	s0,24(sp)
     5ec:	01412483          	lw	s1,20(sp)
     5f0:	01012903          	lw	s2,16(sp)
     5f4:	00c12983          	lw	s3,12(sp)
     5f8:	00812a03          	lw	s4,8(sp)
     5fc:	02010113          	addi	sp,sp,32
     600:	00008067          	ret

00000604 <__sfp>:
     604:	00002797          	auipc	a5,0x2
     608:	78c7a783          	lw	a5,1932(a5) # 2d90 <__stdio_exit_handler>
     60c:	fe010113          	addi	sp,sp,-32
     610:	01312623          	sw	s3,12(sp)
     614:	00112e23          	sw	ra,28(sp)
     618:	00812c23          	sw	s0,24(sp)
     61c:	00912a23          	sw	s1,20(sp)
     620:	01212823          	sw	s2,16(sp)
     624:	00050993          	mv	s3,a0
     628:	0e078e63          	beqz	a5,724 <__sfp+0x120>
     62c:	00002917          	auipc	s2,0x2
     630:	efc90913          	addi	s2,s2,-260 # 2528 <__sglue>
     634:	fff00493          	li	s1,-1
     638:	00492783          	lw	a5,4(s2)
     63c:	00892403          	lw	s0,8(s2)
     640:	fff78793          	addi	a5,a5,-1
     644:	0007d863          	bgez	a5,654 <__sfp+0x50>
     648:	0840006f          	j	6cc <__sfp+0xc8>
     64c:	06840413          	addi	s0,s0,104
     650:	06978e63          	beq	a5,s1,6cc <__sfp+0xc8>
     654:	00c41703          	lh	a4,12(s0)
     658:	fff78793          	addi	a5,a5,-1
     65c:	fe0718e3          	bnez	a4,64c <__sfp+0x48>
     660:	ffff07b7          	lui	a5,0xffff0
     664:	00178793          	addi	a5,a5,1 # ffff0001 <_end+0xfffed255>
     668:	06042223          	sw	zero,100(s0)
     66c:	00042023          	sw	zero,0(s0)
     670:	00042423          	sw	zero,8(s0)
     674:	00042223          	sw	zero,4(s0)
     678:	00042823          	sw	zero,16(s0)
     67c:	00042a23          	sw	zero,20(s0)
     680:	00042c23          	sw	zero,24(s0)
     684:	00f42623          	sw	a5,12(s0)
     688:	00800613          	li	a2,8
     68c:	00000593          	li	a1,0
     690:	05c40513          	addi	a0,s0,92
     694:	00000097          	auipc	ra,0x0
     698:	6dc080e7          	jalr	1756(ra) # d70 <memset>
     69c:	02042823          	sw	zero,48(s0)
     6a0:	02042a23          	sw	zero,52(s0)
     6a4:	04042223          	sw	zero,68(s0)
     6a8:	04042423          	sw	zero,72(s0)
     6ac:	01c12083          	lw	ra,28(sp)
     6b0:	00040513          	mv	a0,s0
     6b4:	01812403          	lw	s0,24(sp)
     6b8:	01412483          	lw	s1,20(sp)
     6bc:	01012903          	lw	s2,16(sp)
     6c0:	00c12983          	lw	s3,12(sp)
     6c4:	02010113          	addi	sp,sp,32
     6c8:	00008067          	ret
     6cc:	00092403          	lw	s0,0(s2)
     6d0:	00040663          	beqz	s0,6dc <__sfp+0xd8>
     6d4:	00040913          	mv	s2,s0
     6d8:	f61ff06f          	j	638 <__sfp+0x34>
     6dc:	1ac00593          	li	a1,428
     6e0:	00098513          	mv	a0,s3
     6e4:	00001097          	auipc	ra,0x1
     6e8:	dcc080e7          	jalr	-564(ra) # 14b0 <_malloc_r>
     6ec:	00050413          	mv	s0,a0
     6f0:	04050063          	beqz	a0,730 <__sfp+0x12c>
     6f4:	00400793          	li	a5,4
     6f8:	00c50513          	addi	a0,a0,12
     6fc:	00042023          	sw	zero,0(s0)
     700:	00f42223          	sw	a5,4(s0)
     704:	00a42423          	sw	a0,8(s0)
     708:	1a000613          	li	a2,416
     70c:	00000593          	li	a1,0
     710:	00000097          	auipc	ra,0x0
     714:	660080e7          	jalr	1632(ra) # d70 <memset>
     718:	00892023          	sw	s0,0(s2)
     71c:	00040913          	mv	s2,s0
     720:	f19ff06f          	j	638 <__sfp+0x34>
     724:	00000097          	auipc	ra,0x0
     728:	d64080e7          	jalr	-668(ra) # 488 <global_stdio_init.part.0>
     72c:	f01ff06f          	j	62c <__sfp+0x28>
     730:	00092023          	sw	zero,0(s2)
     734:	00c00793          	li	a5,12
     738:	00f9a023          	sw	a5,0(s3)
     73c:	f71ff06f          	j	6ac <__sfp+0xa8>

00000740 <__sinit>:
     740:	03452783          	lw	a5,52(a0)
     744:	00078463          	beqz	a5,74c <__sinit+0xc>
     748:	00008067          	ret
     74c:	00002797          	auipc	a5,0x2
     750:	6447a783          	lw	a5,1604(a5) # 2d90 <__stdio_exit_handler>
     754:	00000717          	auipc	a4,0x0
     758:	cb070713          	addi	a4,a4,-848 # 404 <cleanup_stdio>
     75c:	02e52a23          	sw	a4,52(a0)
     760:	fe0794e3          	bnez	a5,748 <__sinit+0x8>
     764:	00000317          	auipc	t1,0x0
     768:	d2430067          	jr	-732(t1) # 488 <global_stdio_init.part.0>

0000076c <__sfp_lock_acquire>:
     76c:	00008067          	ret

00000770 <__sfp_lock_release>:
     770:	00008067          	ret

00000774 <__fp_lock_all>:
     774:	00002617          	auipc	a2,0x2
     778:	db460613          	addi	a2,a2,-588 # 2528 <__sglue>
     77c:	00000597          	auipc	a1,0x0
     780:	c6058593          	addi	a1,a1,-928 # 3dc <__fp_lock>
     784:	00000513          	li	a0,0
     788:	00000317          	auipc	t1,0x0
     78c:	02430067          	jr	36(t1) # 7ac <_fwalk_sglue>

00000790 <__fp_unlock_all>:
     790:	00002617          	auipc	a2,0x2
     794:	d9860613          	addi	a2,a2,-616 # 2528 <__sglue>
     798:	00000597          	auipc	a1,0x0
     79c:	ce858593          	addi	a1,a1,-792 # 480 <__fp_unlock>
     7a0:	00000513          	li	a0,0
     7a4:	00000317          	auipc	t1,0x0
     7a8:	00830067          	jr	8(t1) # 7ac <_fwalk_sglue>

000007ac <_fwalk_sglue>:
     7ac:	fd010113          	addi	sp,sp,-48
     7b0:	03212023          	sw	s2,32(sp)
     7b4:	01312e23          	sw	s3,28(sp)
     7b8:	01412c23          	sw	s4,24(sp)
     7bc:	01512a23          	sw	s5,20(sp)
     7c0:	01612823          	sw	s6,16(sp)
     7c4:	01712623          	sw	s7,12(sp)
     7c8:	02112623          	sw	ra,44(sp)
     7cc:	02812423          	sw	s0,40(sp)
     7d0:	02912223          	sw	s1,36(sp)
     7d4:	00050b13          	mv	s6,a0
     7d8:	00058b93          	mv	s7,a1
     7dc:	00060a93          	mv	s5,a2
     7e0:	00000a13          	li	s4,0
     7e4:	00100993          	li	s3,1
     7e8:	fff00913          	li	s2,-1
     7ec:	004aa483          	lw	s1,4(s5)
     7f0:	008aa403          	lw	s0,8(s5)
     7f4:	fff48493          	addi	s1,s1,-1
     7f8:	0204c863          	bltz	s1,828 <_fwalk_sglue+0x7c>
     7fc:	00c45783          	lhu	a5,12(s0)
     800:	00f9fe63          	bgeu	s3,a5,81c <_fwalk_sglue+0x70>
     804:	00e41783          	lh	a5,14(s0)
     808:	00040593          	mv	a1,s0
     80c:	000b0513          	mv	a0,s6
     810:	01278663          	beq	a5,s2,81c <_fwalk_sglue+0x70>
     814:	000b80e7          	jalr	s7
     818:	00aa6a33          	or	s4,s4,a0
     81c:	fff48493          	addi	s1,s1,-1
     820:	06840413          	addi	s0,s0,104
     824:	fd249ce3          	bne	s1,s2,7fc <_fwalk_sglue+0x50>
     828:	000aaa83          	lw	s5,0(s5)
     82c:	fc0a90e3          	bnez	s5,7ec <_fwalk_sglue+0x40>
     830:	02c12083          	lw	ra,44(sp)
     834:	02812403          	lw	s0,40(sp)
     838:	02412483          	lw	s1,36(sp)
     83c:	02012903          	lw	s2,32(sp)
     840:	01c12983          	lw	s3,28(sp)
     844:	01412a83          	lw	s5,20(sp)
     848:	01012b03          	lw	s6,16(sp)
     84c:	00c12b83          	lw	s7,12(sp)
     850:	000a0513          	mv	a0,s4
     854:	01812a03          	lw	s4,24(sp)
     858:	03010113          	addi	sp,sp,48
     85c:	00008067          	ret

00000860 <__sread>:
     860:	ff010113          	addi	sp,sp,-16
     864:	00812423          	sw	s0,8(sp)
     868:	00058413          	mv	s0,a1
     86c:	00e59583          	lh	a1,14(a1)
     870:	00112623          	sw	ra,12(sp)
     874:	00000097          	auipc	ra,0x0
     878:	358080e7          	jalr	856(ra) # bcc <_read_r>
     87c:	02054063          	bltz	a0,89c <__sread+0x3c>
     880:	05042783          	lw	a5,80(s0)
     884:	00c12083          	lw	ra,12(sp)
     888:	00a787b3          	add	a5,a5,a0
     88c:	04f42823          	sw	a5,80(s0)
     890:	00812403          	lw	s0,8(sp)
     894:	01010113          	addi	sp,sp,16
     898:	00008067          	ret
     89c:	00c45783          	lhu	a5,12(s0)
     8a0:	fffff737          	lui	a4,0xfffff
     8a4:	fff70713          	addi	a4,a4,-1 # ffffefff <_end+0xffffc253>
     8a8:	00e7f7b3          	and	a5,a5,a4
     8ac:	00c12083          	lw	ra,12(sp)
     8b0:	00f41623          	sh	a5,12(s0)
     8b4:	00812403          	lw	s0,8(sp)
     8b8:	01010113          	addi	sp,sp,16
     8bc:	00008067          	ret

000008c0 <__seofread>:
     8c0:	00000513          	li	a0,0
     8c4:	00008067          	ret

000008c8 <__swrite>:
     8c8:	00c59783          	lh	a5,12(a1)
     8cc:	fe010113          	addi	sp,sp,-32
     8d0:	00812c23          	sw	s0,24(sp)
     8d4:	00912a23          	sw	s1,20(sp)
     8d8:	01212823          	sw	s2,16(sp)
     8dc:	01312623          	sw	s3,12(sp)
     8e0:	00112e23          	sw	ra,28(sp)
     8e4:	1007f713          	andi	a4,a5,256
     8e8:	00058413          	mv	s0,a1
     8ec:	00060913          	mv	s2,a2
     8f0:	00068993          	mv	s3,a3
     8f4:	00050493          	mv	s1,a0
     8f8:	04071263          	bnez	a4,93c <__swrite+0x74>
     8fc:	fffff737          	lui	a4,0xfffff
     900:	fff70713          	addi	a4,a4,-1 # ffffefff <_end+0xffffc253>
     904:	00e7f7b3          	and	a5,a5,a4
     908:	00e41583          	lh	a1,14(s0)
     90c:	00f41623          	sh	a5,12(s0)
     910:	01812403          	lw	s0,24(sp)
     914:	01c12083          	lw	ra,28(sp)
     918:	00098693          	mv	a3,s3
     91c:	00090613          	mv	a2,s2
     920:	00c12983          	lw	s3,12(sp)
     924:	01012903          	lw	s2,16(sp)
     928:	00048513          	mv	a0,s1
     92c:	01412483          	lw	s1,20(sp)
     930:	02010113          	addi	sp,sp,32
     934:	00000317          	auipc	t1,0x0
     938:	32030067          	jr	800(t1) # c54 <_write_r>
     93c:	00e59583          	lh	a1,14(a1)
     940:	00200693          	li	a3,2
     944:	00000613          	li	a2,0
     948:	00000097          	auipc	ra,0x0
     94c:	1fc080e7          	jalr	508(ra) # b44 <_lseek_r>
     950:	00c41783          	lh	a5,12(s0)
     954:	fa9ff06f          	j	8fc <__swrite+0x34>

00000958 <__sseek>:
     958:	ff010113          	addi	sp,sp,-16
     95c:	00812423          	sw	s0,8(sp)
     960:	00058413          	mv	s0,a1
     964:	00e59583          	lh	a1,14(a1)
     968:	00112623          	sw	ra,12(sp)
     96c:	00000097          	auipc	ra,0x0
     970:	1d8080e7          	jalr	472(ra) # b44 <_lseek_r>
     974:	fff00713          	li	a4,-1
     978:	00c41783          	lh	a5,12(s0)
     97c:	02e50263          	beq	a0,a4,9a0 <__sseek+0x48>
     980:	00001737          	lui	a4,0x1
     984:	00e7e7b3          	or	a5,a5,a4
     988:	00c12083          	lw	ra,12(sp)
     98c:	04a42823          	sw	a0,80(s0)
     990:	00f41623          	sh	a5,12(s0)
     994:	00812403          	lw	s0,8(sp)
     998:	01010113          	addi	sp,sp,16
     99c:	00008067          	ret
     9a0:	fffff737          	lui	a4,0xfffff
     9a4:	fff70713          	addi	a4,a4,-1 # ffffefff <_end+0xffffc253>
     9a8:	00e7f7b3          	and	a5,a5,a4
     9ac:	00c12083          	lw	ra,12(sp)
     9b0:	00f41623          	sh	a5,12(s0)
     9b4:	00812403          	lw	s0,8(sp)
     9b8:	01010113          	addi	sp,sp,16
     9bc:	00008067          	ret

000009c0 <__sclose>:
     9c0:	00e59583          	lh	a1,14(a1)
     9c4:	00000317          	auipc	t1,0x0
     9c8:	00830067          	jr	8(t1) # 9cc <_close_r>

000009cc <_close_r>:
     9cc:	ff010113          	addi	sp,sp,-16
     9d0:	00812423          	sw	s0,8(sp)
     9d4:	00050413          	mv	s0,a0
     9d8:	00058513          	mv	a0,a1
     9dc:	00002797          	auipc	a5,0x2
     9e0:	3a07ac23          	sw	zero,952(a5) # 2d94 <errno>
     9e4:	00112623          	sw	ra,12(sp)
     9e8:	00002097          	auipc	ra,0x2
     9ec:	940080e7          	jalr	-1728(ra) # 2328 <_close>
     9f0:	fff00793          	li	a5,-1
     9f4:	00f50a63          	beq	a0,a5,a08 <_close_r+0x3c>
     9f8:	00c12083          	lw	ra,12(sp)
     9fc:	00812403          	lw	s0,8(sp)
     a00:	01010113          	addi	sp,sp,16
     a04:	00008067          	ret
     a08:	00912223          	sw	s1,4(sp)
     a0c:	00002497          	auipc	s1,0x2
     a10:	38848493          	addi	s1,s1,904 # 2d94 <errno>
     a14:	0004a783          	lw	a5,0(s1)
     a18:	00078e63          	beqz	a5,a34 <_close_r+0x68>
     a1c:	00c12083          	lw	ra,12(sp)
     a20:	00f42023          	sw	a5,0(s0)
     a24:	00812403          	lw	s0,8(sp)
     a28:	00412483          	lw	s1,4(sp)
     a2c:	01010113          	addi	sp,sp,16
     a30:	00008067          	ret
     a34:	00c12083          	lw	ra,12(sp)
     a38:	00812403          	lw	s0,8(sp)
     a3c:	00412483          	lw	s1,4(sp)
     a40:	01010113          	addi	sp,sp,16
     a44:	00008067          	ret

00000a48 <_reclaim_reent>:
     a48:	00002797          	auipc	a5,0x2
     a4c:	01c7a783          	lw	a5,28(a5) # 2a64 <_impure_ptr>
     a50:	0ea78863          	beq	a5,a0,b40 <_reclaim_reent+0xf8>
     a54:	04452583          	lw	a1,68(a0)
     a58:	fe010113          	addi	sp,sp,-32
     a5c:	00912a23          	sw	s1,20(sp)
     a60:	00112e23          	sw	ra,28(sp)
     a64:	00812c23          	sw	s0,24(sp)
     a68:	00050493          	mv	s1,a0
     a6c:	04058c63          	beqz	a1,ac4 <_reclaim_reent+0x7c>
     a70:	01212823          	sw	s2,16(sp)
     a74:	01312623          	sw	s3,12(sp)
     a78:	00000913          	li	s2,0
     a7c:	08000993          	li	s3,128
     a80:	012587b3          	add	a5,a1,s2
     a84:	0007a403          	lw	s0,0(a5)
     a88:	02040063          	beqz	s0,aa8 <_reclaim_reent+0x60>
     a8c:	00040593          	mv	a1,s0
     a90:	00042403          	lw	s0,0(s0)
     a94:	00048513          	mv	a0,s1
     a98:	00000097          	auipc	ra,0x0
     a9c:	710080e7          	jalr	1808(ra) # 11a8 <_free_r>
     aa0:	fe0416e3          	bnez	s0,a8c <_reclaim_reent+0x44>
     aa4:	0444a583          	lw	a1,68(s1)
     aa8:	00490913          	addi	s2,s2,4
     aac:	fd391ae3          	bne	s2,s3,a80 <_reclaim_reent+0x38>
     ab0:	00048513          	mv	a0,s1
     ab4:	00000097          	auipc	ra,0x0
     ab8:	6f4080e7          	jalr	1780(ra) # 11a8 <_free_r>
     abc:	01012903          	lw	s2,16(sp)
     ac0:	00c12983          	lw	s3,12(sp)
     ac4:	0384a583          	lw	a1,56(s1)
     ac8:	00058863          	beqz	a1,ad8 <_reclaim_reent+0x90>
     acc:	00048513          	mv	a0,s1
     ad0:	00000097          	auipc	ra,0x0
     ad4:	6d8080e7          	jalr	1752(ra) # 11a8 <_free_r>
     ad8:	0404a403          	lw	s0,64(s1)
     adc:	00040e63          	beqz	s0,af8 <_reclaim_reent+0xb0>
     ae0:	00040593          	mv	a1,s0
     ae4:	00042403          	lw	s0,0(s0)
     ae8:	00048513          	mv	a0,s1
     aec:	00000097          	auipc	ra,0x0
     af0:	6bc080e7          	jalr	1724(ra) # 11a8 <_free_r>
     af4:	fe0416e3          	bnez	s0,ae0 <_reclaim_reent+0x98>
     af8:	04c4a583          	lw	a1,76(s1)
     afc:	00058863          	beqz	a1,b0c <_reclaim_reent+0xc4>
     b00:	00048513          	mv	a0,s1
     b04:	00000097          	auipc	ra,0x0
     b08:	6a4080e7          	jalr	1700(ra) # 11a8 <_free_r>
     b0c:	0344a783          	lw	a5,52(s1)
     b10:	00078e63          	beqz	a5,b2c <_reclaim_reent+0xe4>
     b14:	01812403          	lw	s0,24(sp)
     b18:	01c12083          	lw	ra,28(sp)
     b1c:	00048513          	mv	a0,s1
     b20:	01412483          	lw	s1,20(sp)
     b24:	02010113          	addi	sp,sp,32
     b28:	00078067          	jr	a5
     b2c:	01c12083          	lw	ra,28(sp)
     b30:	01812403          	lw	s0,24(sp)
     b34:	01412483          	lw	s1,20(sp)
     b38:	02010113          	addi	sp,sp,32
     b3c:	00008067          	ret
     b40:	00008067          	ret

00000b44 <_lseek_r>:
     b44:	ff010113          	addi	sp,sp,-16
     b48:	00058713          	mv	a4,a1
     b4c:	00812423          	sw	s0,8(sp)
     b50:	00060593          	mv	a1,a2
     b54:	00050413          	mv	s0,a0
     b58:	00068613          	mv	a2,a3
     b5c:	00070513          	mv	a0,a4
     b60:	00002797          	auipc	a5,0x2
     b64:	2207aa23          	sw	zero,564(a5) # 2d94 <errno>
     b68:	00112623          	sw	ra,12(sp)
     b6c:	00002097          	auipc	ra,0x2
     b70:	838080e7          	jalr	-1992(ra) # 23a4 <_lseek>
     b74:	fff00793          	li	a5,-1
     b78:	00f50a63          	beq	a0,a5,b8c <_lseek_r+0x48>
     b7c:	00c12083          	lw	ra,12(sp)
     b80:	00812403          	lw	s0,8(sp)
     b84:	01010113          	addi	sp,sp,16
     b88:	00008067          	ret
     b8c:	00912223          	sw	s1,4(sp)
     b90:	00002497          	auipc	s1,0x2
     b94:	20448493          	addi	s1,s1,516 # 2d94 <errno>
     b98:	0004a783          	lw	a5,0(s1)
     b9c:	00078e63          	beqz	a5,bb8 <_lseek_r+0x74>
     ba0:	00c12083          	lw	ra,12(sp)
     ba4:	00f42023          	sw	a5,0(s0)
     ba8:	00812403          	lw	s0,8(sp)
     bac:	00412483          	lw	s1,4(sp)
     bb0:	01010113          	addi	sp,sp,16
     bb4:	00008067          	ret
     bb8:	00c12083          	lw	ra,12(sp)
     bbc:	00812403          	lw	s0,8(sp)
     bc0:	00412483          	lw	s1,4(sp)
     bc4:	01010113          	addi	sp,sp,16
     bc8:	00008067          	ret

00000bcc <_read_r>:
     bcc:	ff010113          	addi	sp,sp,-16
     bd0:	00058713          	mv	a4,a1
     bd4:	00812423          	sw	s0,8(sp)
     bd8:	00060593          	mv	a1,a2
     bdc:	00050413          	mv	s0,a0
     be0:	00068613          	mv	a2,a3
     be4:	00070513          	mv	a0,a4
     be8:	00002797          	auipc	a5,0x2
     bec:	1a07a623          	sw	zero,428(a5) # 2d94 <errno>
     bf0:	00112623          	sw	ra,12(sp)
     bf4:	00001097          	auipc	ra,0x1
     bf8:	7f8080e7          	jalr	2040(ra) # 23ec <_read>
     bfc:	fff00793          	li	a5,-1
     c00:	00f50a63          	beq	a0,a5,c14 <_read_r+0x48>
     c04:	00c12083          	lw	ra,12(sp)
     c08:	00812403          	lw	s0,8(sp)
     c0c:	01010113          	addi	sp,sp,16
     c10:	00008067          	ret
     c14:	00912223          	sw	s1,4(sp)
     c18:	00002497          	auipc	s1,0x2
     c1c:	17c48493          	addi	s1,s1,380 # 2d94 <errno>
     c20:	0004a783          	lw	a5,0(s1)
     c24:	00078e63          	beqz	a5,c40 <_read_r+0x74>
     c28:	00c12083          	lw	ra,12(sp)
     c2c:	00f42023          	sw	a5,0(s0)
     c30:	00812403          	lw	s0,8(sp)
     c34:	00412483          	lw	s1,4(sp)
     c38:	01010113          	addi	sp,sp,16
     c3c:	00008067          	ret
     c40:	00c12083          	lw	ra,12(sp)
     c44:	00812403          	lw	s0,8(sp)
     c48:	00412483          	lw	s1,4(sp)
     c4c:	01010113          	addi	sp,sp,16
     c50:	00008067          	ret

00000c54 <_write_r>:
     c54:	ff010113          	addi	sp,sp,-16
     c58:	00058713          	mv	a4,a1
     c5c:	00812423          	sw	s0,8(sp)
     c60:	00060593          	mv	a1,a2
     c64:	00050413          	mv	s0,a0
     c68:	00068613          	mv	a2,a3
     c6c:	00070513          	mv	a0,a4
     c70:	00002797          	auipc	a5,0x2
     c74:	1207a223          	sw	zero,292(a5) # 2d94 <errno>
     c78:	00112623          	sw	ra,12(sp)
     c7c:	00002097          	auipc	ra,0x2
     c80:	83c080e7          	jalr	-1988(ra) # 24b8 <_write>
     c84:	fff00793          	li	a5,-1
     c88:	00f50a63          	beq	a0,a5,c9c <_write_r+0x48>
     c8c:	00c12083          	lw	ra,12(sp)
     c90:	00812403          	lw	s0,8(sp)
     c94:	01010113          	addi	sp,sp,16
     c98:	00008067          	ret
     c9c:	00912223          	sw	s1,4(sp)
     ca0:	00002497          	auipc	s1,0x2
     ca4:	0f448493          	addi	s1,s1,244 # 2d94 <errno>
     ca8:	0004a783          	lw	a5,0(s1)
     cac:	00078e63          	beqz	a5,cc8 <_write_r+0x74>
     cb0:	00c12083          	lw	ra,12(sp)
     cb4:	00f42023          	sw	a5,0(s0)
     cb8:	00812403          	lw	s0,8(sp)
     cbc:	00412483          	lw	s1,4(sp)
     cc0:	01010113          	addi	sp,sp,16
     cc4:	00008067          	ret
     cc8:	00c12083          	lw	ra,12(sp)
     ccc:	00812403          	lw	s0,8(sp)
     cd0:	00412483          	lw	s1,4(sp)
     cd4:	01010113          	addi	sp,sp,16
     cd8:	00008067          	ret

00000cdc <__libc_init_array>:
     cdc:	ff010113          	addi	sp,sp,-16
     ce0:	00812423          	sw	s0,8(sp)
     ce4:	01212023          	sw	s2,0(sp)
     ce8:	fffff797          	auipc	a5,0xfffff
     cec:	31878793          	addi	a5,a5,792 # 0 <_start>
     cf0:	fffff417          	auipc	s0,0xfffff
     cf4:	31040413          	addi	s0,s0,784 # 0 <_start>
     cf8:	00112623          	sw	ra,12(sp)
     cfc:	00912223          	sw	s1,4(sp)
     d00:	40878933          	sub	s2,a5,s0
     d04:	02878063          	beq	a5,s0,d24 <__libc_init_array+0x48>
     d08:	40295913          	srai	s2,s2,0x2
     d0c:	00000493          	li	s1,0
     d10:	00042783          	lw	a5,0(s0)
     d14:	00148493          	addi	s1,s1,1
     d18:	00440413          	addi	s0,s0,4
     d1c:	000780e7          	jalr	a5
     d20:	ff24e8e3          	bltu	s1,s2,d10 <__libc_init_array+0x34>
     d24:	fffff797          	auipc	a5,0xfffff
     d28:	2dc78793          	addi	a5,a5,732 # 0 <_start>
     d2c:	fffff417          	auipc	s0,0xfffff
     d30:	2d440413          	addi	s0,s0,724 # 0 <_start>
     d34:	40878933          	sub	s2,a5,s0
     d38:	40295913          	srai	s2,s2,0x2
     d3c:	00878e63          	beq	a5,s0,d58 <__libc_init_array+0x7c>
     d40:	00000493          	li	s1,0
     d44:	00042783          	lw	a5,0(s0)
     d48:	00148493          	addi	s1,s1,1
     d4c:	00440413          	addi	s0,s0,4
     d50:	000780e7          	jalr	a5
     d54:	ff24e8e3          	bltu	s1,s2,d44 <__libc_init_array+0x68>
     d58:	00c12083          	lw	ra,12(sp)
     d5c:	00812403          	lw	s0,8(sp)
     d60:	00412483          	lw	s1,4(sp)
     d64:	00012903          	lw	s2,0(sp)
     d68:	01010113          	addi	sp,sp,16
     d6c:	00008067          	ret

00000d70 <memset>:
     d70:	00f00313          	li	t1,15
     d74:	00050713          	mv	a4,a0
     d78:	02c37e63          	bgeu	t1,a2,db4 <memset+0x44>
     d7c:	00f77793          	andi	a5,a4,15
     d80:	0a079063          	bnez	a5,e20 <memset+0xb0>
     d84:	08059263          	bnez	a1,e08 <memset+0x98>
     d88:	ff067693          	andi	a3,a2,-16
     d8c:	00f67613          	andi	a2,a2,15
     d90:	00e686b3          	add	a3,a3,a4
     d94:	00b72023          	sw	a1,0(a4)
     d98:	00b72223          	sw	a1,4(a4)
     d9c:	00b72423          	sw	a1,8(a4)
     da0:	00b72623          	sw	a1,12(a4)
     da4:	01070713          	addi	a4,a4,16
     da8:	fed766e3          	bltu	a4,a3,d94 <memset+0x24>
     dac:	00061463          	bnez	a2,db4 <memset+0x44>
     db0:	00008067          	ret
     db4:	40c306b3          	sub	a3,t1,a2
     db8:	00269693          	slli	a3,a3,0x2
     dbc:	00000297          	auipc	t0,0x0
     dc0:	005686b3          	add	a3,a3,t0
     dc4:	00c68067          	jr	12(a3)
     dc8:	00b70723          	sb	a1,14(a4)
     dcc:	00b706a3          	sb	a1,13(a4)
     dd0:	00b70623          	sb	a1,12(a4)
     dd4:	00b705a3          	sb	a1,11(a4)
     dd8:	00b70523          	sb	a1,10(a4)
     ddc:	00b704a3          	sb	a1,9(a4)
     de0:	00b70423          	sb	a1,8(a4)
     de4:	00b703a3          	sb	a1,7(a4)
     de8:	00b70323          	sb	a1,6(a4)
     dec:	00b702a3          	sb	a1,5(a4)
     df0:	00b70223          	sb	a1,4(a4)
     df4:	00b701a3          	sb	a1,3(a4)
     df8:	00b70123          	sb	a1,2(a4)
     dfc:	00b700a3          	sb	a1,1(a4)
     e00:	00b70023          	sb	a1,0(a4)
     e04:	00008067          	ret
     e08:	0ff5f593          	zext.b	a1,a1
     e0c:	00859693          	slli	a3,a1,0x8
     e10:	00d5e5b3          	or	a1,a1,a3
     e14:	01059693          	slli	a3,a1,0x10
     e18:	00d5e5b3          	or	a1,a1,a3
     e1c:	f6dff06f          	j	d88 <memset+0x18>
     e20:	00279693          	slli	a3,a5,0x2
     e24:	00000297          	auipc	t0,0x0
     e28:	005686b3          	add	a3,a3,t0
     e2c:	00008293          	mv	t0,ra
     e30:	fa0680e7          	jalr	-96(a3)
     e34:	00028093          	mv	ra,t0
     e38:	ff078793          	addi	a5,a5,-16
     e3c:	40f70733          	sub	a4,a4,a5
     e40:	00f60633          	add	a2,a2,a5
     e44:	f6c378e3          	bgeu	t1,a2,db4 <memset+0x44>
     e48:	f3dff06f          	j	d84 <memset+0x14>

00000e4c <strlen>:
     e4c:	00357793          	andi	a5,a0,3
     e50:	00050713          	mv	a4,a0
     e54:	04079c63          	bnez	a5,eac <strlen+0x60>
     e58:	7f7f86b7          	lui	a3,0x7f7f8
     e5c:	f7f68693          	addi	a3,a3,-129 # 7f7f7f7f <_end+0x7f7f51d3>
     e60:	fff00593          	li	a1,-1
     e64:	00072603          	lw	a2,0(a4)
     e68:	00470713          	addi	a4,a4,4
     e6c:	00d677b3          	and	a5,a2,a3
     e70:	00d787b3          	add	a5,a5,a3
     e74:	00c7e7b3          	or	a5,a5,a2
     e78:	00d7e7b3          	or	a5,a5,a3
     e7c:	feb784e3          	beq	a5,a1,e64 <strlen+0x18>
     e80:	ffc74683          	lbu	a3,-4(a4)
     e84:	40a707b3          	sub	a5,a4,a0
     e88:	04068463          	beqz	a3,ed0 <strlen+0x84>
     e8c:	ffd74683          	lbu	a3,-3(a4)
     e90:	02068c63          	beqz	a3,ec8 <strlen+0x7c>
     e94:	ffe74503          	lbu	a0,-2(a4)
     e98:	00a03533          	snez	a0,a0
     e9c:	00f50533          	add	a0,a0,a5
     ea0:	ffe50513          	addi	a0,a0,-2
     ea4:	00008067          	ret
     ea8:	fa0688e3          	beqz	a3,e58 <strlen+0xc>
     eac:	00074783          	lbu	a5,0(a4)
     eb0:	00170713          	addi	a4,a4,1
     eb4:	00377693          	andi	a3,a4,3
     eb8:	fe0798e3          	bnez	a5,ea8 <strlen+0x5c>
     ebc:	40a70733          	sub	a4,a4,a0
     ec0:	fff70513          	addi	a0,a4,-1
     ec4:	00008067          	ret
     ec8:	ffd78513          	addi	a0,a5,-3
     ecc:	00008067          	ret
     ed0:	ffc78513          	addi	a0,a5,-4
     ed4:	00008067          	ret

00000ed8 <register_fini>:
     ed8:	fffff797          	auipc	a5,0xfffff
     edc:	12878793          	addi	a5,a5,296 # 0 <_start>
     ee0:	00078a63          	beqz	a5,ef4 <register_fini+0x1c>
     ee4:	00001517          	auipc	a0,0x1
     ee8:	34850513          	addi	a0,a0,840 # 222c <__libc_fini_array>
     eec:	00000317          	auipc	t1,0x0
     ef0:	14830067          	jr	328(t1) # 1034 <atexit>
     ef4:	00008067          	ret

00000ef8 <__call_exitprocs>:
     ef8:	fd010113          	addi	sp,sp,-48
     efc:	01412c23          	sw	s4,24(sp)
     f00:	00002a17          	auipc	s4,0x2
     f04:	e98a0a13          	addi	s4,s4,-360 # 2d98 <__atexit>
     f08:	03212023          	sw	s2,32(sp)
     f0c:	000a2903          	lw	s2,0(s4)
     f10:	02112623          	sw	ra,44(sp)
     f14:	06090c63          	beqz	s2,f8c <__call_exitprocs+0x94>
     f18:	01312e23          	sw	s3,28(sp)
     f1c:	01512a23          	sw	s5,20(sp)
     f20:	01612823          	sw	s6,16(sp)
     f24:	01712623          	sw	s7,12(sp)
     f28:	02812423          	sw	s0,40(sp)
     f2c:	02912223          	sw	s1,36(sp)
     f30:	01812423          	sw	s8,8(sp)
     f34:	00050b13          	mv	s6,a0
     f38:	00058b93          	mv	s7,a1
     f3c:	fff00993          	li	s3,-1
     f40:	00100a93          	li	s5,1
     f44:	00492483          	lw	s1,4(s2)
     f48:	fff48413          	addi	s0,s1,-1
     f4c:	02044263          	bltz	s0,f70 <__call_exitprocs+0x78>
     f50:	00249493          	slli	s1,s1,0x2
     f54:	009904b3          	add	s1,s2,s1
     f58:	040b8463          	beqz	s7,fa0 <__call_exitprocs+0xa8>
     f5c:	1044a783          	lw	a5,260(s1)
     f60:	05778063          	beq	a5,s7,fa0 <__call_exitprocs+0xa8>
     f64:	fff40413          	addi	s0,s0,-1
     f68:	ffc48493          	addi	s1,s1,-4
     f6c:	ff3418e3          	bne	s0,s3,f5c <__call_exitprocs+0x64>
     f70:	02812403          	lw	s0,40(sp)
     f74:	02412483          	lw	s1,36(sp)
     f78:	01c12983          	lw	s3,28(sp)
     f7c:	01412a83          	lw	s5,20(sp)
     f80:	01012b03          	lw	s6,16(sp)
     f84:	00c12b83          	lw	s7,12(sp)
     f88:	00812c03          	lw	s8,8(sp)
     f8c:	02c12083          	lw	ra,44(sp)
     f90:	02012903          	lw	s2,32(sp)
     f94:	01812a03          	lw	s4,24(sp)
     f98:	03010113          	addi	sp,sp,48
     f9c:	00008067          	ret
     fa0:	00492783          	lw	a5,4(s2)
     fa4:	0044a683          	lw	a3,4(s1)
     fa8:	fff78793          	addi	a5,a5,-1
     fac:	06878a63          	beq	a5,s0,1020 <__call_exitprocs+0x128>
     fb0:	0004a223          	sw	zero,4(s1)
     fb4:	02068663          	beqz	a3,fe0 <__call_exitprocs+0xe8>
     fb8:	18892783          	lw	a5,392(s2)
     fbc:	008a9733          	sll	a4,s5,s0
     fc0:	00492c03          	lw	s8,4(s2)
     fc4:	00f777b3          	and	a5,a4,a5
     fc8:	02079463          	bnez	a5,ff0 <__call_exitprocs+0xf8>
     fcc:	000680e7          	jalr	a3
     fd0:	00492703          	lw	a4,4(s2)
     fd4:	000a2783          	lw	a5,0(s4)
     fd8:	03871e63          	bne	a4,s8,1014 <__call_exitprocs+0x11c>
     fdc:	03279c63          	bne	a5,s2,1014 <__call_exitprocs+0x11c>
     fe0:	fff40413          	addi	s0,s0,-1
     fe4:	ffc48493          	addi	s1,s1,-4
     fe8:	f73418e3          	bne	s0,s3,f58 <__call_exitprocs+0x60>
     fec:	f85ff06f          	j	f70 <__call_exitprocs+0x78>
     ff0:	18c92783          	lw	a5,396(s2)
     ff4:	0844a583          	lw	a1,132(s1)
     ff8:	00f77733          	and	a4,a4,a5
     ffc:	02071663          	bnez	a4,1028 <__call_exitprocs+0x130>
    1000:	000b0513          	mv	a0,s6
    1004:	000680e7          	jalr	a3
    1008:	00492703          	lw	a4,4(s2)
    100c:	000a2783          	lw	a5,0(s4)
    1010:	fd8706e3          	beq	a4,s8,fdc <__call_exitprocs+0xe4>
    1014:	f4078ee3          	beqz	a5,f70 <__call_exitprocs+0x78>
    1018:	00078913          	mv	s2,a5
    101c:	f29ff06f          	j	f44 <__call_exitprocs+0x4c>
    1020:	00892223          	sw	s0,4(s2)
    1024:	f91ff06f          	j	fb4 <__call_exitprocs+0xbc>
    1028:	00058513          	mv	a0,a1
    102c:	000680e7          	jalr	a3
    1030:	fa1ff06f          	j	fd0 <__call_exitprocs+0xd8>

00001034 <atexit>:
    1034:	00050593          	mv	a1,a0
    1038:	00000693          	li	a3,0
    103c:	00000613          	li	a2,0
    1040:	00000513          	li	a0,0
    1044:	00001317          	auipc	t1,0x1
    1048:	24430067          	jr	580(t1) # 2288 <__register_exitproc>

0000104c <_malloc_trim_r>:
    104c:	fe010113          	addi	sp,sp,-32
    1050:	00812c23          	sw	s0,24(sp)
    1054:	00912a23          	sw	s1,20(sp)
    1058:	01212823          	sw	s2,16(sp)
    105c:	01312623          	sw	s3,12(sp)
    1060:	01412423          	sw	s4,8(sp)
    1064:	00058993          	mv	s3,a1
    1068:	00112e23          	sw	ra,28(sp)
    106c:	00050913          	mv	s2,a0
    1070:	00001a17          	auipc	s4,0x1
    1074:	5e8a0a13          	addi	s4,s4,1512 # 2658 <__malloc_av_>
    1078:	00001097          	auipc	ra,0x1
    107c:	c9c080e7          	jalr	-868(ra) # 1d14 <__malloc_lock>
    1080:	008a2783          	lw	a5,8(s4)
    1084:	00001437          	lui	s0,0x1
    1088:	fef40413          	addi	s0,s0,-17 # fef <__call_exitprocs+0xf7>
    108c:	0047a483          	lw	s1,4(a5)
    1090:	000017b7          	lui	a5,0x1
    1094:	ffc4f493          	andi	s1,s1,-4
    1098:	00848433          	add	s0,s1,s0
    109c:	41340433          	sub	s0,s0,s3
    10a0:	00c45413          	srli	s0,s0,0xc
    10a4:	fff40413          	addi	s0,s0,-1
    10a8:	00c41413          	slli	s0,s0,0xc
    10ac:	02f44063          	blt	s0,a5,10cc <_malloc_trim_r+0x80>
    10b0:	00000593          	li	a1,0
    10b4:	00090513          	mv	a0,s2
    10b8:	00001097          	auipc	ra,0x1
    10bc:	0f8080e7          	jalr	248(ra) # 21b0 <_sbrk_r>
    10c0:	008a2783          	lw	a5,8(s4)
    10c4:	009787b3          	add	a5,a5,s1
    10c8:	02f50a63          	beq	a0,a5,10fc <_malloc_trim_r+0xb0>
    10cc:	00090513          	mv	a0,s2
    10d0:	00001097          	auipc	ra,0x1
    10d4:	c48080e7          	jalr	-952(ra) # 1d18 <__malloc_unlock>
    10d8:	01c12083          	lw	ra,28(sp)
    10dc:	01812403          	lw	s0,24(sp)
    10e0:	01412483          	lw	s1,20(sp)
    10e4:	01012903          	lw	s2,16(sp)
    10e8:	00c12983          	lw	s3,12(sp)
    10ec:	00812a03          	lw	s4,8(sp)
    10f0:	00000513          	li	a0,0
    10f4:	02010113          	addi	sp,sp,32
    10f8:	00008067          	ret
    10fc:	408005b3          	neg	a1,s0
    1100:	00090513          	mv	a0,s2
    1104:	00001097          	auipc	ra,0x1
    1108:	0ac080e7          	jalr	172(ra) # 21b0 <_sbrk_r>
    110c:	fff00793          	li	a5,-1
    1110:	04f50c63          	beq	a0,a5,1168 <_malloc_trim_r+0x11c>
    1114:	00002717          	auipc	a4,0x2
    1118:	ac070713          	addi	a4,a4,-1344 # 2bd4 <__malloc_current_mallinfo>
    111c:	008a2683          	lw	a3,8(s4)
    1120:	00072783          	lw	a5,0(a4)
    1124:	408484b3          	sub	s1,s1,s0
    1128:	0014e493          	ori	s1,s1,1
    112c:	00090513          	mv	a0,s2
    1130:	408787b3          	sub	a5,a5,s0
    1134:	0096a223          	sw	s1,4(a3)
    1138:	00f72023          	sw	a5,0(a4)
    113c:	00001097          	auipc	ra,0x1
    1140:	bdc080e7          	jalr	-1060(ra) # 1d18 <__malloc_unlock>
    1144:	01c12083          	lw	ra,28(sp)
    1148:	01812403          	lw	s0,24(sp)
    114c:	01412483          	lw	s1,20(sp)
    1150:	01012903          	lw	s2,16(sp)
    1154:	00c12983          	lw	s3,12(sp)
    1158:	00812a03          	lw	s4,8(sp)
    115c:	00100513          	li	a0,1
    1160:	02010113          	addi	sp,sp,32
    1164:	00008067          	ret
    1168:	00000593          	li	a1,0
    116c:	00090513          	mv	a0,s2
    1170:	00001097          	auipc	ra,0x1
    1174:	040080e7          	jalr	64(ra) # 21b0 <_sbrk_r>
    1178:	008a2703          	lw	a4,8(s4)
    117c:	00f00693          	li	a3,15
    1180:	40e507b3          	sub	a5,a0,a4
    1184:	f4f6d4e3          	bge	a3,a5,10cc <_malloc_trim_r+0x80>
    1188:	00002697          	auipc	a3,0x2
    118c:	8e06a683          	lw	a3,-1824(a3) # 2a68 <__malloc_sbrk_base>
    1190:	0017e793          	ori	a5,a5,1
    1194:	00f72223          	sw	a5,4(a4)
    1198:	40d50533          	sub	a0,a0,a3
    119c:	00002797          	auipc	a5,0x2
    11a0:	a2a7ac23          	sw	a0,-1480(a5) # 2bd4 <__malloc_current_mallinfo>
    11a4:	f29ff06f          	j	10cc <_malloc_trim_r+0x80>

000011a8 <_free_r>:
    11a8:	12058a63          	beqz	a1,12dc <_free_r+0x134>
    11ac:	ff010113          	addi	sp,sp,-16
    11b0:	00812423          	sw	s0,8(sp)
    11b4:	00912223          	sw	s1,4(sp)
    11b8:	00058413          	mv	s0,a1
    11bc:	00050493          	mv	s1,a0
    11c0:	00112623          	sw	ra,12(sp)
    11c4:	00001097          	auipc	ra,0x1
    11c8:	b50080e7          	jalr	-1200(ra) # 1d14 <__malloc_lock>
    11cc:	ffc42583          	lw	a1,-4(s0)
    11d0:	ff840713          	addi	a4,s0,-8
    11d4:	00001817          	auipc	a6,0x1
    11d8:	48480813          	addi	a6,a6,1156 # 2658 <__malloc_av_>
    11dc:	ffe5f793          	andi	a5,a1,-2
    11e0:	00f70633          	add	a2,a4,a5
    11e4:	00462683          	lw	a3,4(a2)
    11e8:	00882503          	lw	a0,8(a6)
    11ec:	0015f893          	andi	a7,a1,1
    11f0:	ffc6f693          	andi	a3,a3,-4
    11f4:	1ac50063          	beq	a0,a2,1394 <_free_r+0x1ec>
    11f8:	00d62223          	sw	a3,4(a2)
    11fc:	00d60533          	add	a0,a2,a3
    1200:	00452503          	lw	a0,4(a0)
    1204:	00157513          	andi	a0,a0,1
    1208:	08089e63          	bnez	a7,12a4 <_free_r+0xfc>
    120c:	ff842303          	lw	t1,-8(s0)
    1210:	00001897          	auipc	a7,0x1
    1214:	45088893          	addi	a7,a7,1104 # 2660 <__malloc_av_+0x8>
    1218:	40670733          	sub	a4,a4,t1
    121c:	00872583          	lw	a1,8(a4)
    1220:	006787b3          	add	a5,a5,t1
    1224:	15158263          	beq	a1,a7,1368 <_free_r+0x1c0>
    1228:	00c72303          	lw	t1,12(a4)
    122c:	0065a623          	sw	t1,12(a1)
    1230:	00b32423          	sw	a1,8(t1)
    1234:	1a050a63          	beqz	a0,13e8 <_free_r+0x240>
    1238:	0017e693          	ori	a3,a5,1
    123c:	00d72223          	sw	a3,4(a4)
    1240:	00f62023          	sw	a5,0(a2)
    1244:	1ff00693          	li	a3,511
    1248:	0af6e663          	bltu	a3,a5,12f4 <_free_r+0x14c>
    124c:	ff87f693          	andi	a3,a5,-8
    1250:	00868693          	addi	a3,a3,8
    1254:	00482583          	lw	a1,4(a6)
    1258:	00d806b3          	add	a3,a6,a3
    125c:	0006a603          	lw	a2,0(a3)
    1260:	0057d513          	srli	a0,a5,0x5
    1264:	00100793          	li	a5,1
    1268:	00a797b3          	sll	a5,a5,a0
    126c:	00b7e7b3          	or	a5,a5,a1
    1270:	ff868593          	addi	a1,a3,-8
    1274:	00c72423          	sw	a2,8(a4)
    1278:	00b72623          	sw	a1,12(a4)
    127c:	00f82223          	sw	a5,4(a6)
    1280:	00e6a023          	sw	a4,0(a3)
    1284:	00e62623          	sw	a4,12(a2)
    1288:	00812403          	lw	s0,8(sp)
    128c:	00c12083          	lw	ra,12(sp)
    1290:	00048513          	mv	a0,s1
    1294:	00412483          	lw	s1,4(sp)
    1298:	01010113          	addi	sp,sp,16
    129c:	00001317          	auipc	t1,0x1
    12a0:	a7c30067          	jr	-1412(t1) # 1d18 <__malloc_unlock>
    12a4:	02051e63          	bnez	a0,12e0 <_free_r+0x138>
    12a8:	00d787b3          	add	a5,a5,a3
    12ac:	00001897          	auipc	a7,0x1
    12b0:	3b488893          	addi	a7,a7,948 # 2660 <__malloc_av_+0x8>
    12b4:	00862683          	lw	a3,8(a2)
    12b8:	0017e513          	ori	a0,a5,1
    12bc:	00f705b3          	add	a1,a4,a5
    12c0:	17168a63          	beq	a3,a7,1434 <_free_r+0x28c>
    12c4:	00c62603          	lw	a2,12(a2)
    12c8:	00c6a623          	sw	a2,12(a3)
    12cc:	00d62423          	sw	a3,8(a2)
    12d0:	00a72223          	sw	a0,4(a4)
    12d4:	00f5a023          	sw	a5,0(a1)
    12d8:	f6dff06f          	j	1244 <_free_r+0x9c>
    12dc:	00008067          	ret
    12e0:	0015e593          	ori	a1,a1,1
    12e4:	feb42e23          	sw	a1,-4(s0)
    12e8:	00f62023          	sw	a5,0(a2)
    12ec:	1ff00693          	li	a3,511
    12f0:	f4f6fee3          	bgeu	a3,a5,124c <_free_r+0xa4>
    12f4:	0097d693          	srli	a3,a5,0x9
    12f8:	00400613          	li	a2,4
    12fc:	0ed66a63          	bltu	a2,a3,13f0 <_free_r+0x248>
    1300:	0067d693          	srli	a3,a5,0x6
    1304:	03968593          	addi	a1,a3,57
    1308:	00359593          	slli	a1,a1,0x3
    130c:	03868613          	addi	a2,a3,56
    1310:	00b805b3          	add	a1,a6,a1
    1314:	0005a683          	lw	a3,0(a1)
    1318:	ff858593          	addi	a1,a1,-8
    131c:	00d59863          	bne	a1,a3,132c <_free_r+0x184>
    1320:	1300006f          	j	1450 <_free_r+0x2a8>
    1324:	0086a683          	lw	a3,8(a3)
    1328:	00d58863          	beq	a1,a3,1338 <_free_r+0x190>
    132c:	0046a603          	lw	a2,4(a3)
    1330:	ffc67613          	andi	a2,a2,-4
    1334:	fec7e8e3          	bltu	a5,a2,1324 <_free_r+0x17c>
    1338:	00c6a583          	lw	a1,12(a3)
    133c:	00b72623          	sw	a1,12(a4)
    1340:	00d72423          	sw	a3,8(a4)
    1344:	00812403          	lw	s0,8(sp)
    1348:	00c12083          	lw	ra,12(sp)
    134c:	00e5a423          	sw	a4,8(a1)
    1350:	00048513          	mv	a0,s1
    1354:	00412483          	lw	s1,4(sp)
    1358:	00e6a623          	sw	a4,12(a3)
    135c:	01010113          	addi	sp,sp,16
    1360:	00001317          	auipc	t1,0x1
    1364:	9b830067          	jr	-1608(t1) # 1d18 <__malloc_unlock>
    1368:	0a051663          	bnez	a0,1414 <_free_r+0x26c>
    136c:	00c62583          	lw	a1,12(a2)
    1370:	00862603          	lw	a2,8(a2)
    1374:	00f686b3          	add	a3,a3,a5
    1378:	0016e793          	ori	a5,a3,1
    137c:	00b62623          	sw	a1,12(a2)
    1380:	00c5a423          	sw	a2,8(a1)
    1384:	00f72223          	sw	a5,4(a4)
    1388:	00d70733          	add	a4,a4,a3
    138c:	00d72023          	sw	a3,0(a4)
    1390:	ef9ff06f          	j	1288 <_free_r+0xe0>
    1394:	00d786b3          	add	a3,a5,a3
    1398:	02089063          	bnez	a7,13b8 <_free_r+0x210>
    139c:	ff842583          	lw	a1,-8(s0)
    13a0:	40b70733          	sub	a4,a4,a1
    13a4:	00c72783          	lw	a5,12(a4)
    13a8:	00872603          	lw	a2,8(a4)
    13ac:	00b686b3          	add	a3,a3,a1
    13b0:	00f62623          	sw	a5,12(a2)
    13b4:	00c7a423          	sw	a2,8(a5)
    13b8:	0016e613          	ori	a2,a3,1
    13bc:	00001797          	auipc	a5,0x1
    13c0:	6b07a783          	lw	a5,1712(a5) # 2a6c <__malloc_trim_threshold>
    13c4:	00c72223          	sw	a2,4(a4)
    13c8:	00e82423          	sw	a4,8(a6)
    13cc:	eaf6eee3          	bltu	a3,a5,1288 <_free_r+0xe0>
    13d0:	00002597          	auipc	a1,0x2
    13d4:	9d45a583          	lw	a1,-1580(a1) # 2da4 <__malloc_top_pad>
    13d8:	00048513          	mv	a0,s1
    13dc:	00000097          	auipc	ra,0x0
    13e0:	c70080e7          	jalr	-912(ra) # 104c <_malloc_trim_r>
    13e4:	ea5ff06f          	j	1288 <_free_r+0xe0>
    13e8:	00d787b3          	add	a5,a5,a3
    13ec:	ec9ff06f          	j	12b4 <_free_r+0x10c>
    13f0:	01400613          	li	a2,20
    13f4:	02d67863          	bgeu	a2,a3,1424 <_free_r+0x27c>
    13f8:	05400613          	li	a2,84
    13fc:	06d66863          	bltu	a2,a3,146c <_free_r+0x2c4>
    1400:	00c7d693          	srli	a3,a5,0xc
    1404:	06f68593          	addi	a1,a3,111
    1408:	00359593          	slli	a1,a1,0x3
    140c:	06e68613          	addi	a2,a3,110
    1410:	f01ff06f          	j	1310 <_free_r+0x168>
    1414:	0017e693          	ori	a3,a5,1
    1418:	00d72223          	sw	a3,4(a4)
    141c:	00f62023          	sw	a5,0(a2)
    1420:	e69ff06f          	j	1288 <_free_r+0xe0>
    1424:	05c68593          	addi	a1,a3,92
    1428:	00359593          	slli	a1,a1,0x3
    142c:	05b68613          	addi	a2,a3,91
    1430:	ee1ff06f          	j	1310 <_free_r+0x168>
    1434:	00e82a23          	sw	a4,20(a6)
    1438:	00e82823          	sw	a4,16(a6)
    143c:	01172623          	sw	a7,12(a4)
    1440:	01172423          	sw	a7,8(a4)
    1444:	00a72223          	sw	a0,4(a4)
    1448:	00f5a023          	sw	a5,0(a1)
    144c:	e3dff06f          	j	1288 <_free_r+0xe0>
    1450:	00482503          	lw	a0,4(a6)
    1454:	40265613          	srai	a2,a2,0x2
    1458:	00100793          	li	a5,1
    145c:	00c797b3          	sll	a5,a5,a2
    1460:	00a7e7b3          	or	a5,a5,a0
    1464:	00f82223          	sw	a5,4(a6)
    1468:	ed5ff06f          	j	133c <_free_r+0x194>
    146c:	15400613          	li	a2,340
    1470:	00d66c63          	bltu	a2,a3,1488 <_free_r+0x2e0>
    1474:	00f7d693          	srli	a3,a5,0xf
    1478:	07868593          	addi	a1,a3,120
    147c:	00359593          	slli	a1,a1,0x3
    1480:	07768613          	addi	a2,a3,119
    1484:	e8dff06f          	j	1310 <_free_r+0x168>
    1488:	55400613          	li	a2,1364
    148c:	00d66c63          	bltu	a2,a3,14a4 <_free_r+0x2fc>
    1490:	0127d693          	srli	a3,a5,0x12
    1494:	07d68593          	addi	a1,a3,125
    1498:	00359593          	slli	a1,a1,0x3
    149c:	07c68613          	addi	a2,a3,124
    14a0:	e71ff06f          	j	1310 <_free_r+0x168>
    14a4:	3f800593          	li	a1,1016
    14a8:	07e00613          	li	a2,126
    14ac:	e65ff06f          	j	1310 <_free_r+0x168>

000014b0 <_malloc_r>:
    14b0:	fd010113          	addi	sp,sp,-48
    14b4:	03212023          	sw	s2,32(sp)
    14b8:	02112623          	sw	ra,44(sp)
    14bc:	02812423          	sw	s0,40(sp)
    14c0:	02912223          	sw	s1,36(sp)
    14c4:	01312e23          	sw	s3,28(sp)
    14c8:	00b58793          	addi	a5,a1,11
    14cc:	01600713          	li	a4,22
    14d0:	00050913          	mv	s2,a0
    14d4:	08f76463          	bltu	a4,a5,155c <_malloc_r+0xac>
    14d8:	01000493          	li	s1,16
    14dc:	20b4ec63          	bltu	s1,a1,16f4 <_malloc_r+0x244>
    14e0:	00001097          	auipc	ra,0x1
    14e4:	834080e7          	jalr	-1996(ra) # 1d14 <__malloc_lock>
    14e8:	01800793          	li	a5,24
    14ec:	00200593          	li	a1,2
    14f0:	00001997          	auipc	s3,0x1
    14f4:	16898993          	addi	s3,s3,360 # 2658 <__malloc_av_>
    14f8:	00f987b3          	add	a5,s3,a5
    14fc:	0047a403          	lw	s0,4(a5)
    1500:	ff878713          	addi	a4,a5,-8
    1504:	48e40463          	beq	s0,a4,198c <_malloc_r+0x4dc>
    1508:	00442783          	lw	a5,4(s0)
    150c:	00c42683          	lw	a3,12(s0)
    1510:	00842603          	lw	a2,8(s0)
    1514:	ffc7f793          	andi	a5,a5,-4
    1518:	00f407b3          	add	a5,s0,a5
    151c:	0047a703          	lw	a4,4(a5)
    1520:	00d62623          	sw	a3,12(a2)
    1524:	00c6a423          	sw	a2,8(a3)
    1528:	00176713          	ori	a4,a4,1
    152c:	00090513          	mv	a0,s2
    1530:	00e7a223          	sw	a4,4(a5)
    1534:	00000097          	auipc	ra,0x0
    1538:	7e4080e7          	jalr	2020(ra) # 1d18 <__malloc_unlock>
    153c:	02c12083          	lw	ra,44(sp)
    1540:	00840513          	addi	a0,s0,8
    1544:	02812403          	lw	s0,40(sp)
    1548:	02412483          	lw	s1,36(sp)
    154c:	02012903          	lw	s2,32(sp)
    1550:	01c12983          	lw	s3,28(sp)
    1554:	03010113          	addi	sp,sp,48
    1558:	00008067          	ret
    155c:	ff87f493          	andi	s1,a5,-8
    1560:	1807ca63          	bltz	a5,16f4 <_malloc_r+0x244>
    1564:	18b4e863          	bltu	s1,a1,16f4 <_malloc_r+0x244>
    1568:	00000097          	auipc	ra,0x0
    156c:	7ac080e7          	jalr	1964(ra) # 1d14 <__malloc_lock>
    1570:	1f700793          	li	a5,503
    1574:	5297fa63          	bgeu	a5,s1,1aa8 <_malloc_r+0x5f8>
    1578:	0094d793          	srli	a5,s1,0x9
    157c:	1a078063          	beqz	a5,171c <_malloc_r+0x26c>
    1580:	00400713          	li	a4,4
    1584:	46f76c63          	bltu	a4,a5,19fc <_malloc_r+0x54c>
    1588:	0064d793          	srli	a5,s1,0x6
    158c:	03978593          	addi	a1,a5,57
    1590:	03878813          	addi	a6,a5,56
    1594:	00359613          	slli	a2,a1,0x3
    1598:	00001997          	auipc	s3,0x1
    159c:	0c098993          	addi	s3,s3,192 # 2658 <__malloc_av_>
    15a0:	00c98633          	add	a2,s3,a2
    15a4:	00462403          	lw	s0,4(a2)
    15a8:	ff860613          	addi	a2,a2,-8
    15ac:	02860863          	beq	a2,s0,15dc <_malloc_r+0x12c>
    15b0:	00f00513          	li	a0,15
    15b4:	0140006f          	j	15c8 <_malloc_r+0x118>
    15b8:	00c42683          	lw	a3,12(s0)
    15bc:	38075463          	bgez	a4,1944 <_malloc_r+0x494>
    15c0:	00d60e63          	beq	a2,a3,15dc <_malloc_r+0x12c>
    15c4:	00068413          	mv	s0,a3
    15c8:	00442783          	lw	a5,4(s0)
    15cc:	ffc7f793          	andi	a5,a5,-4
    15d0:	40978733          	sub	a4,a5,s1
    15d4:	fee552e3          	bge	a0,a4,15b8 <_malloc_r+0x108>
    15d8:	00080593          	mv	a1,a6
    15dc:	0109a403          	lw	s0,16(s3)
    15e0:	00001897          	auipc	a7,0x1
    15e4:	08088893          	addi	a7,a7,128 # 2660 <__malloc_av_+0x8>
    15e8:	2d140c63          	beq	s0,a7,18c0 <_malloc_r+0x410>
    15ec:	00442783          	lw	a5,4(s0)
    15f0:	00f00693          	li	a3,15
    15f4:	ffc7f793          	andi	a5,a5,-4
    15f8:	40978733          	sub	a4,a5,s1
    15fc:	4ae6cc63          	blt	a3,a4,1ab4 <_malloc_r+0x604>
    1600:	0119aa23          	sw	a7,20(s3)
    1604:	0119a823          	sw	a7,16(s3)
    1608:	46075e63          	bgez	a4,1a84 <_malloc_r+0x5d4>
    160c:	1ff00713          	li	a4,511
    1610:	0049a503          	lw	a0,4(s3)
    1614:	38f76463          	bltu	a4,a5,199c <_malloc_r+0x4ec>
    1618:	ff87f713          	andi	a4,a5,-8
    161c:	00870713          	addi	a4,a4,8
    1620:	00e98733          	add	a4,s3,a4
    1624:	00072683          	lw	a3,0(a4)
    1628:	0057d613          	srli	a2,a5,0x5
    162c:	00100793          	li	a5,1
    1630:	00c797b3          	sll	a5,a5,a2
    1634:	00f56533          	or	a0,a0,a5
    1638:	ff870793          	addi	a5,a4,-8
    163c:	00d42423          	sw	a3,8(s0)
    1640:	00f42623          	sw	a5,12(s0)
    1644:	00a9a223          	sw	a0,4(s3)
    1648:	00872023          	sw	s0,0(a4)
    164c:	0086a623          	sw	s0,12(a3)
    1650:	4025d793          	srai	a5,a1,0x2
    1654:	00100613          	li	a2,1
    1658:	00f61633          	sll	a2,a2,a5
    165c:	0cc56863          	bltu	a0,a2,172c <_malloc_r+0x27c>
    1660:	00a677b3          	and	a5,a2,a0
    1664:	02079463          	bnez	a5,168c <_malloc_r+0x1dc>
    1668:	00161613          	slli	a2,a2,0x1
    166c:	ffc5f593          	andi	a1,a1,-4
    1670:	00a677b3          	and	a5,a2,a0
    1674:	00458593          	addi	a1,a1,4
    1678:	00079a63          	bnez	a5,168c <_malloc_r+0x1dc>
    167c:	00161613          	slli	a2,a2,0x1
    1680:	00a677b3          	and	a5,a2,a0
    1684:	00458593          	addi	a1,a1,4
    1688:	fe078ae3          	beqz	a5,167c <_malloc_r+0x1cc>
    168c:	00f00813          	li	a6,15
    1690:	00359313          	slli	t1,a1,0x3
    1694:	00698333          	add	t1,s3,t1
    1698:	00030513          	mv	a0,t1
    169c:	00c52783          	lw	a5,12(a0)
    16a0:	00058e13          	mv	t3,a1
    16a4:	36f50e63          	beq	a0,a5,1a20 <_malloc_r+0x570>
    16a8:	0047a703          	lw	a4,4(a5)
    16ac:	00078413          	mv	s0,a5
    16b0:	00c7a783          	lw	a5,12(a5)
    16b4:	ffc77713          	andi	a4,a4,-4
    16b8:	409706b3          	sub	a3,a4,s1
    16bc:	36d84e63          	blt	a6,a3,1a38 <_malloc_r+0x588>
    16c0:	fe06c2e3          	bltz	a3,16a4 <_malloc_r+0x1f4>
    16c4:	00e40733          	add	a4,s0,a4
    16c8:	00472683          	lw	a3,4(a4)
    16cc:	00842603          	lw	a2,8(s0)
    16d0:	00090513          	mv	a0,s2
    16d4:	0016e693          	ori	a3,a3,1
    16d8:	00d72223          	sw	a3,4(a4)
    16dc:	00f62623          	sw	a5,12(a2)
    16e0:	00c7a423          	sw	a2,8(a5)
    16e4:	00000097          	auipc	ra,0x0
    16e8:	634080e7          	jalr	1588(ra) # 1d18 <__malloc_unlock>
    16ec:	00840513          	addi	a0,s0,8
    16f0:	0100006f          	j	1700 <_malloc_r+0x250>
    16f4:	00c00793          	li	a5,12
    16f8:	00f92023          	sw	a5,0(s2)
    16fc:	00000513          	li	a0,0
    1700:	02c12083          	lw	ra,44(sp)
    1704:	02812403          	lw	s0,40(sp)
    1708:	02412483          	lw	s1,36(sp)
    170c:	02012903          	lw	s2,32(sp)
    1710:	01c12983          	lw	s3,28(sp)
    1714:	03010113          	addi	sp,sp,48
    1718:	00008067          	ret
    171c:	20000613          	li	a2,512
    1720:	04000593          	li	a1,64
    1724:	03f00813          	li	a6,63
    1728:	e71ff06f          	j	1598 <_malloc_r+0xe8>
    172c:	0089a403          	lw	s0,8(s3)
    1730:	01612823          	sw	s6,16(sp)
    1734:	00442783          	lw	a5,4(s0)
    1738:	ffc7fb13          	andi	s6,a5,-4
    173c:	009b6863          	bltu	s6,s1,174c <_malloc_r+0x29c>
    1740:	409b0733          	sub	a4,s6,s1
    1744:	00f00793          	li	a5,15
    1748:	1ae7ca63          	blt	a5,a4,18fc <_malloc_r+0x44c>
    174c:	01912223          	sw	s9,4(sp)
    1750:	00001c97          	auipc	s9,0x1
    1754:	318c8c93          	addi	s9,s9,792 # 2a68 <__malloc_sbrk_base>
    1758:	01512a23          	sw	s5,20(sp)
    175c:	000ca703          	lw	a4,0(s9)
    1760:	00001a97          	auipc	s5,0x1
    1764:	644aaa83          	lw	s5,1604(s5) # 2da4 <__malloc_top_pad>
    1768:	01412c23          	sw	s4,24(sp)
    176c:	01712623          	sw	s7,12(sp)
    1770:	fff00793          	li	a5,-1
    1774:	01640a33          	add	s4,s0,s6
    1778:	01548ab3          	add	s5,s1,s5
    177c:	40f70663          	beq	a4,a5,1b88 <_malloc_r+0x6d8>
    1780:	000017b7          	lui	a5,0x1
    1784:	00f78793          	addi	a5,a5,15 # 100f <__call_exitprocs+0x117>
    1788:	00fa8ab3          	add	s5,s5,a5
    178c:	fffff7b7          	lui	a5,0xfffff
    1790:	00fafab3          	and	s5,s5,a5
    1794:	000a8593          	mv	a1,s5
    1798:	00090513          	mv	a0,s2
    179c:	00001097          	auipc	ra,0x1
    17a0:	a14080e7          	jalr	-1516(ra) # 21b0 <_sbrk_r>
    17a4:	fff00793          	li	a5,-1
    17a8:	00050b93          	mv	s7,a0
    17ac:	4af50663          	beq	a0,a5,1c58 <_malloc_r+0x7a8>
    17b0:	01812423          	sw	s8,8(sp)
    17b4:	11456a63          	bltu	a0,s4,18c8 <_malloc_r+0x418>
    17b8:	00001c17          	auipc	s8,0x1
    17bc:	41cc0c13          	addi	s8,s8,1052 # 2bd4 <__malloc_current_mallinfo>
    17c0:	000c2583          	lw	a1,0(s8)
    17c4:	00ba85b3          	add	a1,s5,a1
    17c8:	00bc2023          	sw	a1,0(s8)
    17cc:	00058713          	mv	a4,a1
    17d0:	48aa0a63          	beq	s4,a0,1c64 <_malloc_r+0x7b4>
    17d4:	000ca683          	lw	a3,0(s9)
    17d8:	fff00793          	li	a5,-1
    17dc:	4af68263          	beq	a3,a5,1c80 <_malloc_r+0x7d0>
    17e0:	414b87b3          	sub	a5,s7,s4
    17e4:	00e787b3          	add	a5,a5,a4
    17e8:	00fc2023          	sw	a5,0(s8)
    17ec:	007bfc93          	andi	s9,s7,7
    17f0:	3a0c8c63          	beqz	s9,1ba8 <_malloc_r+0x6f8>
    17f4:	419b8bb3          	sub	s7,s7,s9
    17f8:	000015b7          	lui	a1,0x1
    17fc:	008b8b93          	addi	s7,s7,8
    1800:	00858593          	addi	a1,a1,8 # 1008 <__call_exitprocs+0x110>
    1804:	015b8ab3          	add	s5,s7,s5
    1808:	419585b3          	sub	a1,a1,s9
    180c:	415585b3          	sub	a1,a1,s5
    1810:	01459593          	slli	a1,a1,0x14
    1814:	0145da13          	srli	s4,a1,0x14
    1818:	000a0593          	mv	a1,s4
    181c:	00090513          	mv	a0,s2
    1820:	00001097          	auipc	ra,0x1
    1824:	990080e7          	jalr	-1648(ra) # 21b0 <_sbrk_r>
    1828:	fff00793          	li	a5,-1
    182c:	48f50a63          	beq	a0,a5,1cc0 <_malloc_r+0x810>
    1830:	41750533          	sub	a0,a0,s7
    1834:	01450ab3          	add	s5,a0,s4
    1838:	000c2703          	lw	a4,0(s8)
    183c:	0179a423          	sw	s7,8(s3)
    1840:	001ae793          	ori	a5,s5,1
    1844:	00ea05b3          	add	a1,s4,a4
    1848:	00fba223          	sw	a5,4(s7)
    184c:	00bc2023          	sw	a1,0(s8)
    1850:	03340e63          	beq	s0,s3,188c <_malloc_r+0x3dc>
    1854:	00f00693          	li	a3,15
    1858:	3966f063          	bgeu	a3,s6,1bd8 <_malloc_r+0x728>
    185c:	00442703          	lw	a4,4(s0)
    1860:	ff4b0793          	addi	a5,s6,-12
    1864:	ff87f793          	andi	a5,a5,-8
    1868:	00177713          	andi	a4,a4,1
    186c:	00f76733          	or	a4,a4,a5
    1870:	00e42223          	sw	a4,4(s0)
    1874:	00500613          	li	a2,5
    1878:	00f40733          	add	a4,s0,a5
    187c:	00c72223          	sw	a2,4(a4)
    1880:	00c72423          	sw	a2,8(a4)
    1884:	2ef6e463          	bltu	a3,a5,1b6c <_malloc_r+0x6bc>
    1888:	004ba783          	lw	a5,4(s7)
    188c:	00001717          	auipc	a4,0x1
    1890:	51470713          	addi	a4,a4,1300 # 2da0 <__malloc_max_sbrked_mem>
    1894:	00072683          	lw	a3,0(a4)
    1898:	00b6f463          	bgeu	a3,a1,18a0 <_malloc_r+0x3f0>
    189c:	00b72023          	sw	a1,0(a4)
    18a0:	00001717          	auipc	a4,0x1
    18a4:	4fc70713          	addi	a4,a4,1276 # 2d9c <__malloc_max_total_mem>
    18a8:	00072683          	lw	a3,0(a4)
    18ac:	00b6f463          	bgeu	a3,a1,18b4 <_malloc_r+0x404>
    18b0:	00b72023          	sw	a1,0(a4)
    18b4:	00812c03          	lw	s8,8(sp)
    18b8:	000b8413          	mv	s0,s7
    18bc:	01c0006f          	j	18d8 <_malloc_r+0x428>
    18c0:	0049a503          	lw	a0,4(s3)
    18c4:	d8dff06f          	j	1650 <_malloc_r+0x1a0>
    18c8:	37340c63          	beq	s0,s3,1c40 <_malloc_r+0x790>
    18cc:	0089a403          	lw	s0,8(s3)
    18d0:	00812c03          	lw	s8,8(sp)
    18d4:	00442783          	lw	a5,4(s0)
    18d8:	ffc7f793          	andi	a5,a5,-4
    18dc:	40978733          	sub	a4,a5,s1
    18e0:	3097e263          	bltu	a5,s1,1be4 <_malloc_r+0x734>
    18e4:	00f00793          	li	a5,15
    18e8:	2ee7de63          	bge	a5,a4,1be4 <_malloc_r+0x734>
    18ec:	01812a03          	lw	s4,24(sp)
    18f0:	01412a83          	lw	s5,20(sp)
    18f4:	00c12b83          	lw	s7,12(sp)
    18f8:	00412c83          	lw	s9,4(sp)
    18fc:	0014e793          	ori	a5,s1,1
    1900:	00f42223          	sw	a5,4(s0)
    1904:	009404b3          	add	s1,s0,s1
    1908:	0099a423          	sw	s1,8(s3)
    190c:	00176713          	ori	a4,a4,1
    1910:	00090513          	mv	a0,s2
    1914:	00e4a223          	sw	a4,4(s1)
    1918:	00000097          	auipc	ra,0x0
    191c:	400080e7          	jalr	1024(ra) # 1d18 <__malloc_unlock>
    1920:	02c12083          	lw	ra,44(sp)
    1924:	00840513          	addi	a0,s0,8
    1928:	02812403          	lw	s0,40(sp)
    192c:	01012b03          	lw	s6,16(sp)
    1930:	02412483          	lw	s1,36(sp)
    1934:	02012903          	lw	s2,32(sp)
    1938:	01c12983          	lw	s3,28(sp)
    193c:	03010113          	addi	sp,sp,48
    1940:	00008067          	ret
    1944:	00842603          	lw	a2,8(s0)
    1948:	00f407b3          	add	a5,s0,a5
    194c:	0047a703          	lw	a4,4(a5) # fffff004 <_end+0xffffc258>
    1950:	00d62623          	sw	a3,12(a2)
    1954:	00c6a423          	sw	a2,8(a3)
    1958:	00176713          	ori	a4,a4,1
    195c:	00090513          	mv	a0,s2
    1960:	00e7a223          	sw	a4,4(a5)
    1964:	00000097          	auipc	ra,0x0
    1968:	3b4080e7          	jalr	948(ra) # 1d18 <__malloc_unlock>
    196c:	02c12083          	lw	ra,44(sp)
    1970:	00840513          	addi	a0,s0,8
    1974:	02812403          	lw	s0,40(sp)
    1978:	02412483          	lw	s1,36(sp)
    197c:	02012903          	lw	s2,32(sp)
    1980:	01c12983          	lw	s3,28(sp)
    1984:	03010113          	addi	sp,sp,48
    1988:	00008067          	ret
    198c:	00c7a403          	lw	s0,12(a5)
    1990:	00258593          	addi	a1,a1,2
    1994:	c48784e3          	beq	a5,s0,15dc <_malloc_r+0x12c>
    1998:	b71ff06f          	j	1508 <_malloc_r+0x58>
    199c:	0097d713          	srli	a4,a5,0x9
    19a0:	00400693          	li	a3,4
    19a4:	14e6f863          	bgeu	a3,a4,1af4 <_malloc_r+0x644>
    19a8:	01400693          	li	a3,20
    19ac:	24e6ee63          	bltu	a3,a4,1c08 <_malloc_r+0x758>
    19b0:	05c70613          	addi	a2,a4,92
    19b4:	00361613          	slli	a2,a2,0x3
    19b8:	05b70693          	addi	a3,a4,91
    19bc:	00c98633          	add	a2,s3,a2
    19c0:	00062703          	lw	a4,0(a2)
    19c4:	ff860613          	addi	a2,a2,-8
    19c8:	00e61863          	bne	a2,a4,19d8 <_malloc_r+0x528>
    19cc:	1c40006f          	j	1b90 <_malloc_r+0x6e0>
    19d0:	00872703          	lw	a4,8(a4)
    19d4:	00e60863          	beq	a2,a4,19e4 <_malloc_r+0x534>
    19d8:	00472683          	lw	a3,4(a4)
    19dc:	ffc6f693          	andi	a3,a3,-4
    19e0:	fed7e8e3          	bltu	a5,a3,19d0 <_malloc_r+0x520>
    19e4:	00c72603          	lw	a2,12(a4)
    19e8:	00c42623          	sw	a2,12(s0)
    19ec:	00e42423          	sw	a4,8(s0)
    19f0:	00862423          	sw	s0,8(a2)
    19f4:	00872623          	sw	s0,12(a4)
    19f8:	c59ff06f          	j	1650 <_malloc_r+0x1a0>
    19fc:	01400713          	li	a4,20
    1a00:	10f77463          	bgeu	a4,a5,1b08 <_malloc_r+0x658>
    1a04:	05400713          	li	a4,84
    1a08:	20f76e63          	bltu	a4,a5,1c24 <_malloc_r+0x774>
    1a0c:	00c4d793          	srli	a5,s1,0xc
    1a10:	06f78593          	addi	a1,a5,111
    1a14:	06e78813          	addi	a6,a5,110
    1a18:	00359613          	slli	a2,a1,0x3
    1a1c:	b7dff06f          	j	1598 <_malloc_r+0xe8>
    1a20:	001e0e13          	addi	t3,t3,1
    1a24:	003e7793          	andi	a5,t3,3
    1a28:	00850513          	addi	a0,a0,8
    1a2c:	0e078c63          	beqz	a5,1b24 <_malloc_r+0x674>
    1a30:	00c52783          	lw	a5,12(a0)
    1a34:	c71ff06f          	j	16a4 <_malloc_r+0x1f4>
    1a38:	00842603          	lw	a2,8(s0)
    1a3c:	0014e593          	ori	a1,s1,1
    1a40:	00b42223          	sw	a1,4(s0)
    1a44:	00f62623          	sw	a5,12(a2)
    1a48:	00c7a423          	sw	a2,8(a5)
    1a4c:	009404b3          	add	s1,s0,s1
    1a50:	0099aa23          	sw	s1,20(s3)
    1a54:	0099a823          	sw	s1,16(s3)
    1a58:	0016e793          	ori	a5,a3,1
    1a5c:	00e40733          	add	a4,s0,a4
    1a60:	0114a623          	sw	a7,12(s1)
    1a64:	0114a423          	sw	a7,8(s1)
    1a68:	00f4a223          	sw	a5,4(s1)
    1a6c:	00090513          	mv	a0,s2
    1a70:	00d72023          	sw	a3,0(a4)
    1a74:	00000097          	auipc	ra,0x0
    1a78:	2a4080e7          	jalr	676(ra) # 1d18 <__malloc_unlock>
    1a7c:	00840513          	addi	a0,s0,8
    1a80:	c81ff06f          	j	1700 <_malloc_r+0x250>
    1a84:	00f407b3          	add	a5,s0,a5
    1a88:	0047a703          	lw	a4,4(a5)
    1a8c:	00090513          	mv	a0,s2
    1a90:	00176713          	ori	a4,a4,1
    1a94:	00e7a223          	sw	a4,4(a5)
    1a98:	00000097          	auipc	ra,0x0
    1a9c:	280080e7          	jalr	640(ra) # 1d18 <__malloc_unlock>
    1aa0:	00840513          	addi	a0,s0,8
    1aa4:	c5dff06f          	j	1700 <_malloc_r+0x250>
    1aa8:	0034d593          	srli	a1,s1,0x3
    1aac:	00848793          	addi	a5,s1,8
    1ab0:	a41ff06f          	j	14f0 <_malloc_r+0x40>
    1ab4:	0014e693          	ori	a3,s1,1
    1ab8:	00d42223          	sw	a3,4(s0)
    1abc:	009404b3          	add	s1,s0,s1
    1ac0:	0099aa23          	sw	s1,20(s3)
    1ac4:	0099a823          	sw	s1,16(s3)
    1ac8:	00176693          	ori	a3,a4,1
    1acc:	00f407b3          	add	a5,s0,a5
    1ad0:	0114a623          	sw	a7,12(s1)
    1ad4:	0114a423          	sw	a7,8(s1)
    1ad8:	00d4a223          	sw	a3,4(s1)
    1adc:	00090513          	mv	a0,s2
    1ae0:	00e7a023          	sw	a4,0(a5)
    1ae4:	00000097          	auipc	ra,0x0
    1ae8:	234080e7          	jalr	564(ra) # 1d18 <__malloc_unlock>
    1aec:	00840513          	addi	a0,s0,8
    1af0:	c11ff06f          	j	1700 <_malloc_r+0x250>
    1af4:	0067d713          	srli	a4,a5,0x6
    1af8:	03970613          	addi	a2,a4,57
    1afc:	00361613          	slli	a2,a2,0x3
    1b00:	03870693          	addi	a3,a4,56
    1b04:	eb9ff06f          	j	19bc <_malloc_r+0x50c>
    1b08:	05c78593          	addi	a1,a5,92
    1b0c:	05b78813          	addi	a6,a5,91
    1b10:	00359613          	slli	a2,a1,0x3
    1b14:	a85ff06f          	j	1598 <_malloc_r+0xe8>
    1b18:	00832783          	lw	a5,8(t1)
    1b1c:	fff58593          	addi	a1,a1,-1
    1b20:	1e679663          	bne	a5,t1,1d0c <_malloc_r+0x85c>
    1b24:	0035f793          	andi	a5,a1,3
    1b28:	ff830313          	addi	t1,t1,-8
    1b2c:	fe0796e3          	bnez	a5,1b18 <_malloc_r+0x668>
    1b30:	0049a703          	lw	a4,4(s3)
    1b34:	fff64793          	not	a5,a2
    1b38:	00e7f7b3          	and	a5,a5,a4
    1b3c:	00f9a223          	sw	a5,4(s3)
    1b40:	00161613          	slli	a2,a2,0x1
    1b44:	bec7e4e3          	bltu	a5,a2,172c <_malloc_r+0x27c>
    1b48:	be0602e3          	beqz	a2,172c <_malloc_r+0x27c>
    1b4c:	00f67733          	and	a4,a2,a5
    1b50:	00071a63          	bnez	a4,1b64 <_malloc_r+0x6b4>
    1b54:	00161613          	slli	a2,a2,0x1
    1b58:	00f67733          	and	a4,a2,a5
    1b5c:	004e0e13          	addi	t3,t3,4
    1b60:	fe070ae3          	beqz	a4,1b54 <_malloc_r+0x6a4>
    1b64:	000e0593          	mv	a1,t3
    1b68:	b29ff06f          	j	1690 <_malloc_r+0x1e0>
    1b6c:	00840593          	addi	a1,s0,8
    1b70:	00090513          	mv	a0,s2
    1b74:	fffff097          	auipc	ra,0xfffff
    1b78:	634080e7          	jalr	1588(ra) # 11a8 <_free_r>
    1b7c:	000c2583          	lw	a1,0(s8)
    1b80:	0089ab83          	lw	s7,8(s3)
    1b84:	d05ff06f          	j	1888 <_malloc_r+0x3d8>
    1b88:	010a8a93          	addi	s5,s5,16
    1b8c:	c09ff06f          	j	1794 <_malloc_r+0x2e4>
    1b90:	4026d693          	srai	a3,a3,0x2
    1b94:	00100793          	li	a5,1
    1b98:	00d797b3          	sll	a5,a5,a3
    1b9c:	00f56533          	or	a0,a0,a5
    1ba0:	00a9a223          	sw	a0,4(s3)
    1ba4:	e45ff06f          	j	19e8 <_malloc_r+0x538>
    1ba8:	015b85b3          	add	a1,s7,s5
    1bac:	40b005b3          	neg	a1,a1
    1bb0:	01459593          	slli	a1,a1,0x14
    1bb4:	0145da13          	srli	s4,a1,0x14
    1bb8:	000a0593          	mv	a1,s4
    1bbc:	00090513          	mv	a0,s2
    1bc0:	00000097          	auipc	ra,0x0
    1bc4:	5f0080e7          	jalr	1520(ra) # 21b0 <_sbrk_r>
    1bc8:	fff00793          	li	a5,-1
    1bcc:	c6f512e3          	bne	a0,a5,1830 <_malloc_r+0x380>
    1bd0:	00000a13          	li	s4,0
    1bd4:	c65ff06f          	j	1838 <_malloc_r+0x388>
    1bd8:	00812c03          	lw	s8,8(sp)
    1bdc:	00100793          	li	a5,1
    1be0:	00fba223          	sw	a5,4(s7)
    1be4:	00090513          	mv	a0,s2
    1be8:	00000097          	auipc	ra,0x0
    1bec:	130080e7          	jalr	304(ra) # 1d18 <__malloc_unlock>
    1bf0:	01812a03          	lw	s4,24(sp)
    1bf4:	01412a83          	lw	s5,20(sp)
    1bf8:	01012b03          	lw	s6,16(sp)
    1bfc:	00c12b83          	lw	s7,12(sp)
    1c00:	00412c83          	lw	s9,4(sp)
    1c04:	af9ff06f          	j	16fc <_malloc_r+0x24c>
    1c08:	05400693          	li	a3,84
    1c0c:	06e6ee63          	bltu	a3,a4,1c88 <_malloc_r+0x7d8>
    1c10:	00c7d713          	srli	a4,a5,0xc
    1c14:	06f70613          	addi	a2,a4,111
    1c18:	00361613          	slli	a2,a2,0x3
    1c1c:	06e70693          	addi	a3,a4,110
    1c20:	d9dff06f          	j	19bc <_malloc_r+0x50c>
    1c24:	15400713          	li	a4,340
    1c28:	06f76e63          	bltu	a4,a5,1ca4 <_malloc_r+0x7f4>
    1c2c:	00f4d793          	srli	a5,s1,0xf
    1c30:	07878593          	addi	a1,a5,120
    1c34:	07778813          	addi	a6,a5,119
    1c38:	00359613          	slli	a2,a1,0x3
    1c3c:	95dff06f          	j	1598 <_malloc_r+0xe8>
    1c40:	00001c17          	auipc	s8,0x1
    1c44:	f94c0c13          	addi	s8,s8,-108 # 2bd4 <__malloc_current_mallinfo>
    1c48:	000c2703          	lw	a4,0(s8)
    1c4c:	00ea8733          	add	a4,s5,a4
    1c50:	00ec2023          	sw	a4,0(s8)
    1c54:	b81ff06f          	j	17d4 <_malloc_r+0x324>
    1c58:	0089a403          	lw	s0,8(s3)
    1c5c:	00442783          	lw	a5,4(s0)
    1c60:	c79ff06f          	j	18d8 <_malloc_r+0x428>
    1c64:	01451793          	slli	a5,a0,0x14
    1c68:	b60796e3          	bnez	a5,17d4 <_malloc_r+0x324>
    1c6c:	0089ab83          	lw	s7,8(s3)
    1c70:	015b07b3          	add	a5,s6,s5
    1c74:	0017e793          	ori	a5,a5,1
    1c78:	00fba223          	sw	a5,4(s7)
    1c7c:	c11ff06f          	j	188c <_malloc_r+0x3dc>
    1c80:	017ca023          	sw	s7,0(s9)
    1c84:	b69ff06f          	j	17ec <_malloc_r+0x33c>
    1c88:	15400693          	li	a3,340
    1c8c:	04e6e463          	bltu	a3,a4,1cd4 <_malloc_r+0x824>
    1c90:	00f7d713          	srli	a4,a5,0xf
    1c94:	07870613          	addi	a2,a4,120
    1c98:	00361613          	slli	a2,a2,0x3
    1c9c:	07770693          	addi	a3,a4,119
    1ca0:	d1dff06f          	j	19bc <_malloc_r+0x50c>
    1ca4:	55400713          	li	a4,1364
    1ca8:	04f76463          	bltu	a4,a5,1cf0 <_malloc_r+0x840>
    1cac:	0124d793          	srli	a5,s1,0x12
    1cb0:	07d78593          	addi	a1,a5,125
    1cb4:	07c78813          	addi	a6,a5,124
    1cb8:	00359613          	slli	a2,a1,0x3
    1cbc:	8ddff06f          	j	1598 <_malloc_r+0xe8>
    1cc0:	ff8c8c93          	addi	s9,s9,-8
    1cc4:	019a8ab3          	add	s5,s5,s9
    1cc8:	417a8ab3          	sub	s5,s5,s7
    1ccc:	00000a13          	li	s4,0
    1cd0:	b69ff06f          	j	1838 <_malloc_r+0x388>
    1cd4:	55400693          	li	a3,1364
    1cd8:	02e6e463          	bltu	a3,a4,1d00 <_malloc_r+0x850>
    1cdc:	0127d713          	srli	a4,a5,0x12
    1ce0:	07d70613          	addi	a2,a4,125
    1ce4:	00361613          	slli	a2,a2,0x3
    1ce8:	07c70693          	addi	a3,a4,124
    1cec:	cd1ff06f          	j	19bc <_malloc_r+0x50c>
    1cf0:	3f800613          	li	a2,1016
    1cf4:	07f00593          	li	a1,127
    1cf8:	07e00813          	li	a6,126
    1cfc:	89dff06f          	j	1598 <_malloc_r+0xe8>
    1d00:	3f800613          	li	a2,1016
    1d04:	07e00693          	li	a3,126
    1d08:	cb5ff06f          	j	19bc <_malloc_r+0x50c>
    1d0c:	0049a783          	lw	a5,4(s3)
    1d10:	e31ff06f          	j	1b40 <_malloc_r+0x690>

00001d14 <__malloc_lock>:
    1d14:	00008067          	ret

00001d18 <__malloc_unlock>:
    1d18:	00008067          	ret

00001d1c <_fclose_r>:
    1d1c:	ff010113          	addi	sp,sp,-16
    1d20:	00112623          	sw	ra,12(sp)
    1d24:	01212023          	sw	s2,0(sp)
    1d28:	02058863          	beqz	a1,1d58 <_fclose_r+0x3c>
    1d2c:	00812423          	sw	s0,8(sp)
    1d30:	00912223          	sw	s1,4(sp)
    1d34:	00058413          	mv	s0,a1
    1d38:	00050493          	mv	s1,a0
    1d3c:	00050663          	beqz	a0,1d48 <_fclose_r+0x2c>
    1d40:	03452783          	lw	a5,52(a0)
    1d44:	0e078863          	beqz	a5,1e34 <_fclose_r+0x118>
    1d48:	00c41783          	lh	a5,12(s0)
    1d4c:	02079263          	bnez	a5,1d70 <_fclose_r+0x54>
    1d50:	00812403          	lw	s0,8(sp)
    1d54:	00412483          	lw	s1,4(sp)
    1d58:	00c12083          	lw	ra,12(sp)
    1d5c:	00000913          	li	s2,0
    1d60:	00090513          	mv	a0,s2
    1d64:	00012903          	lw	s2,0(sp)
    1d68:	01010113          	addi	sp,sp,16
    1d6c:	00008067          	ret
    1d70:	00040593          	mv	a1,s0
    1d74:	00048513          	mv	a0,s1
    1d78:	00000097          	auipc	ra,0x0
    1d7c:	0dc080e7          	jalr	220(ra) # 1e54 <__sflush_r>
    1d80:	02c42783          	lw	a5,44(s0)
    1d84:	00050913          	mv	s2,a0
    1d88:	00078a63          	beqz	a5,1d9c <_fclose_r+0x80>
    1d8c:	01c42583          	lw	a1,28(s0)
    1d90:	00048513          	mv	a0,s1
    1d94:	000780e7          	jalr	a5
    1d98:	06054c63          	bltz	a0,1e10 <_fclose_r+0xf4>
    1d9c:	00c45783          	lhu	a5,12(s0)
    1da0:	0807f793          	andi	a5,a5,128
    1da4:	06079e63          	bnez	a5,1e20 <_fclose_r+0x104>
    1da8:	03042583          	lw	a1,48(s0)
    1dac:	00058e63          	beqz	a1,1dc8 <_fclose_r+0xac>
    1db0:	04040793          	addi	a5,s0,64
    1db4:	00f58863          	beq	a1,a5,1dc4 <_fclose_r+0xa8>
    1db8:	00048513          	mv	a0,s1
    1dbc:	fffff097          	auipc	ra,0xfffff
    1dc0:	3ec080e7          	jalr	1004(ra) # 11a8 <_free_r>
    1dc4:	02042823          	sw	zero,48(s0)
    1dc8:	04442583          	lw	a1,68(s0)
    1dcc:	00058a63          	beqz	a1,1de0 <_fclose_r+0xc4>
    1dd0:	00048513          	mv	a0,s1
    1dd4:	fffff097          	auipc	ra,0xfffff
    1dd8:	3d4080e7          	jalr	980(ra) # 11a8 <_free_r>
    1ddc:	04042223          	sw	zero,68(s0)
    1de0:	fffff097          	auipc	ra,0xfffff
    1de4:	98c080e7          	jalr	-1652(ra) # 76c <__sfp_lock_acquire>
    1de8:	00041623          	sh	zero,12(s0)
    1dec:	fffff097          	auipc	ra,0xfffff
    1df0:	984080e7          	jalr	-1660(ra) # 770 <__sfp_lock_release>
    1df4:	00c12083          	lw	ra,12(sp)
    1df8:	00812403          	lw	s0,8(sp)
    1dfc:	00412483          	lw	s1,4(sp)
    1e00:	00090513          	mv	a0,s2
    1e04:	00012903          	lw	s2,0(sp)
    1e08:	01010113          	addi	sp,sp,16
    1e0c:	00008067          	ret
    1e10:	00c45783          	lhu	a5,12(s0)
    1e14:	fff00913          	li	s2,-1
    1e18:	0807f793          	andi	a5,a5,128
    1e1c:	f80786e3          	beqz	a5,1da8 <_fclose_r+0x8c>
    1e20:	01042583          	lw	a1,16(s0)
    1e24:	00048513          	mv	a0,s1
    1e28:	fffff097          	auipc	ra,0xfffff
    1e2c:	380080e7          	jalr	896(ra) # 11a8 <_free_r>
    1e30:	f79ff06f          	j	1da8 <_fclose_r+0x8c>
    1e34:	fffff097          	auipc	ra,0xfffff
    1e38:	90c080e7          	jalr	-1780(ra) # 740 <__sinit>
    1e3c:	f0dff06f          	j	1d48 <_fclose_r+0x2c>

00001e40 <fclose>:
    1e40:	00050593          	mv	a1,a0
    1e44:	00001517          	auipc	a0,0x1
    1e48:	c2052503          	lw	a0,-992(a0) # 2a64 <_impure_ptr>
    1e4c:	00000317          	auipc	t1,0x0
    1e50:	ed030067          	jr	-304(t1) # 1d1c <_fclose_r>

00001e54 <__sflush_r>:
    1e54:	00c59703          	lh	a4,12(a1)
    1e58:	fe010113          	addi	sp,sp,-32
    1e5c:	00812c23          	sw	s0,24(sp)
    1e60:	01312623          	sw	s3,12(sp)
    1e64:	00112e23          	sw	ra,28(sp)
    1e68:	00877793          	andi	a5,a4,8
    1e6c:	00058413          	mv	s0,a1
    1e70:	00050993          	mv	s3,a0
    1e74:	12079263          	bnez	a5,1f98 <__sflush_r+0x144>
    1e78:	000017b7          	lui	a5,0x1
    1e7c:	80078793          	addi	a5,a5,-2048 # 800 <_fwalk_sglue+0x54>
    1e80:	0045a683          	lw	a3,4(a1)
    1e84:	00f767b3          	or	a5,a4,a5
    1e88:	00f59623          	sh	a5,12(a1)
    1e8c:	18d05c63          	blez	a3,2024 <__sflush_r+0x1d0>
    1e90:	02842803          	lw	a6,40(s0)
    1e94:	0e080663          	beqz	a6,1f80 <__sflush_r+0x12c>
    1e98:	00912a23          	sw	s1,20(sp)
    1e9c:	01371693          	slli	a3,a4,0x13
    1ea0:	0009a483          	lw	s1,0(s3)
    1ea4:	0009a023          	sw	zero,0(s3)
    1ea8:	1806ca63          	bltz	a3,203c <__sflush_r+0x1e8>
    1eac:	01c42583          	lw	a1,28(s0)
    1eb0:	00000613          	li	a2,0
    1eb4:	00100693          	li	a3,1
    1eb8:	00098513          	mv	a0,s3
    1ebc:	000800e7          	jalr	a6
    1ec0:	fff00793          	li	a5,-1
    1ec4:	00050613          	mv	a2,a0
    1ec8:	1af50c63          	beq	a0,a5,2080 <__sflush_r+0x22c>
    1ecc:	00c41783          	lh	a5,12(s0)
    1ed0:	02842803          	lw	a6,40(s0)
    1ed4:	0047f793          	andi	a5,a5,4
    1ed8:	00078e63          	beqz	a5,1ef4 <__sflush_r+0xa0>
    1edc:	00442703          	lw	a4,4(s0)
    1ee0:	03042783          	lw	a5,48(s0)
    1ee4:	40e60633          	sub	a2,a2,a4
    1ee8:	00078663          	beqz	a5,1ef4 <__sflush_r+0xa0>
    1eec:	03c42783          	lw	a5,60(s0)
    1ef0:	40f60633          	sub	a2,a2,a5
    1ef4:	01c42583          	lw	a1,28(s0)
    1ef8:	00000693          	li	a3,0
    1efc:	00098513          	mv	a0,s3
    1f00:	000800e7          	jalr	a6
    1f04:	fff00713          	li	a4,-1
    1f08:	00c41783          	lh	a5,12(s0)
    1f0c:	12e51c63          	bne	a0,a4,2044 <__sflush_r+0x1f0>
    1f10:	0009a683          	lw	a3,0(s3)
    1f14:	01d00713          	li	a4,29
    1f18:	18d76263          	bltu	a4,a3,209c <__sflush_r+0x248>
    1f1c:	20400737          	lui	a4,0x20400
    1f20:	00170713          	addi	a4,a4,1 # 20400001 <_end+0x203fd255>
    1f24:	00d75733          	srl	a4,a4,a3
    1f28:	00177713          	andi	a4,a4,1
    1f2c:	16070863          	beqz	a4,209c <__sflush_r+0x248>
    1f30:	01042603          	lw	a2,16(s0)
    1f34:	fffff737          	lui	a4,0xfffff
    1f38:	7ff70713          	addi	a4,a4,2047 # fffff7ff <_end+0xffffca53>
    1f3c:	00e7f733          	and	a4,a5,a4
    1f40:	00e41623          	sh	a4,12(s0)
    1f44:	00042223          	sw	zero,4(s0)
    1f48:	00c42023          	sw	a2,0(s0)
    1f4c:	01379713          	slli	a4,a5,0x13
    1f50:	00075463          	bgez	a4,1f58 <__sflush_r+0x104>
    1f54:	10068a63          	beqz	a3,2068 <__sflush_r+0x214>
    1f58:	03042583          	lw	a1,48(s0)
    1f5c:	0099a023          	sw	s1,0(s3)
    1f60:	10058c63          	beqz	a1,2078 <__sflush_r+0x224>
    1f64:	04040793          	addi	a5,s0,64
    1f68:	00f58863          	beq	a1,a5,1f78 <__sflush_r+0x124>
    1f6c:	00098513          	mv	a0,s3
    1f70:	fffff097          	auipc	ra,0xfffff
    1f74:	238080e7          	jalr	568(ra) # 11a8 <_free_r>
    1f78:	01412483          	lw	s1,20(sp)
    1f7c:	02042823          	sw	zero,48(s0)
    1f80:	01c12083          	lw	ra,28(sp)
    1f84:	01812403          	lw	s0,24(sp)
    1f88:	00c12983          	lw	s3,12(sp)
    1f8c:	00000513          	li	a0,0
    1f90:	02010113          	addi	sp,sp,32
    1f94:	00008067          	ret
    1f98:	01212823          	sw	s2,16(sp)
    1f9c:	0105a903          	lw	s2,16(a1)
    1fa0:	08090a63          	beqz	s2,2034 <__sflush_r+0x1e0>
    1fa4:	00912a23          	sw	s1,20(sp)
    1fa8:	0005a483          	lw	s1,0(a1)
    1fac:	00377713          	andi	a4,a4,3
    1fb0:	0125a023          	sw	s2,0(a1)
    1fb4:	412484b3          	sub	s1,s1,s2
    1fb8:	00000793          	li	a5,0
    1fbc:	00071463          	bnez	a4,1fc4 <__sflush_r+0x170>
    1fc0:	0145a783          	lw	a5,20(a1)
    1fc4:	00f42423          	sw	a5,8(s0)
    1fc8:	00904863          	bgtz	s1,1fd8 <__sflush_r+0x184>
    1fcc:	0640006f          	j	2030 <__sflush_r+0x1dc>
    1fd0:	00a90933          	add	s2,s2,a0
    1fd4:	04905e63          	blez	s1,2030 <__sflush_r+0x1dc>
    1fd8:	02442783          	lw	a5,36(s0)
    1fdc:	01c42583          	lw	a1,28(s0)
    1fe0:	00048693          	mv	a3,s1
    1fe4:	00090613          	mv	a2,s2
    1fe8:	00098513          	mv	a0,s3
    1fec:	000780e7          	jalr	a5
    1ff0:	40a484b3          	sub	s1,s1,a0
    1ff4:	fca04ee3          	bgtz	a0,1fd0 <__sflush_r+0x17c>
    1ff8:	00c41783          	lh	a5,12(s0)
    1ffc:	01012903          	lw	s2,16(sp)
    2000:	0407e793          	ori	a5,a5,64
    2004:	01c12083          	lw	ra,28(sp)
    2008:	00f41623          	sh	a5,12(s0)
    200c:	01812403          	lw	s0,24(sp)
    2010:	01412483          	lw	s1,20(sp)
    2014:	00c12983          	lw	s3,12(sp)
    2018:	fff00513          	li	a0,-1
    201c:	02010113          	addi	sp,sp,32
    2020:	00008067          	ret
    2024:	03c5a683          	lw	a3,60(a1)
    2028:	e6d044e3          	bgtz	a3,1e90 <__sflush_r+0x3c>
    202c:	f55ff06f          	j	1f80 <__sflush_r+0x12c>
    2030:	01412483          	lw	s1,20(sp)
    2034:	01012903          	lw	s2,16(sp)
    2038:	f49ff06f          	j	1f80 <__sflush_r+0x12c>
    203c:	05042603          	lw	a2,80(s0)
    2040:	e95ff06f          	j	1ed4 <__sflush_r+0x80>
    2044:	01042683          	lw	a3,16(s0)
    2048:	fffff737          	lui	a4,0xfffff
    204c:	7ff70713          	addi	a4,a4,2047 # fffff7ff <_end+0xffffca53>
    2050:	00e7f733          	and	a4,a5,a4
    2054:	00e41623          	sh	a4,12(s0)
    2058:	00042223          	sw	zero,4(s0)
    205c:	00d42023          	sw	a3,0(s0)
    2060:	01379713          	slli	a4,a5,0x13
    2064:	ee075ae3          	bgez	a4,1f58 <__sflush_r+0x104>
    2068:	03042583          	lw	a1,48(s0)
    206c:	04a42823          	sw	a0,80(s0)
    2070:	0099a023          	sw	s1,0(s3)
    2074:	ee0598e3          	bnez	a1,1f64 <__sflush_r+0x110>
    2078:	01412483          	lw	s1,20(sp)
    207c:	f05ff06f          	j	1f80 <__sflush_r+0x12c>
    2080:	0009a783          	lw	a5,0(s3)
    2084:	e40784e3          	beqz	a5,1ecc <__sflush_r+0x78>
    2088:	01d00713          	li	a4,29
    208c:	00e78c63          	beq	a5,a4,20a4 <__sflush_r+0x250>
    2090:	01600713          	li	a4,22
    2094:	00e78863          	beq	a5,a4,20a4 <__sflush_r+0x250>
    2098:	00c41783          	lh	a5,12(s0)
    209c:	0407e793          	ori	a5,a5,64
    20a0:	f65ff06f          	j	2004 <__sflush_r+0x1b0>
    20a4:	0099a023          	sw	s1,0(s3)
    20a8:	01412483          	lw	s1,20(sp)
    20ac:	ed5ff06f          	j	1f80 <__sflush_r+0x12c>

000020b0 <_fflush_r>:
    20b0:	fe010113          	addi	sp,sp,-32
    20b4:	00812c23          	sw	s0,24(sp)
    20b8:	00112e23          	sw	ra,28(sp)
    20bc:	00050413          	mv	s0,a0
    20c0:	00050663          	beqz	a0,20cc <_fflush_r+0x1c>
    20c4:	03452783          	lw	a5,52(a0)
    20c8:	02078c63          	beqz	a5,2100 <_fflush_r+0x50>
    20cc:	00c59783          	lh	a5,12(a1)
    20d0:	00079c63          	bnez	a5,20e8 <_fflush_r+0x38>
    20d4:	01c12083          	lw	ra,28(sp)
    20d8:	01812403          	lw	s0,24(sp)
    20dc:	00000513          	li	a0,0
    20e0:	02010113          	addi	sp,sp,32
    20e4:	00008067          	ret
    20e8:	00040513          	mv	a0,s0
    20ec:	01812403          	lw	s0,24(sp)
    20f0:	01c12083          	lw	ra,28(sp)
    20f4:	02010113          	addi	sp,sp,32
    20f8:	00000317          	auipc	t1,0x0
    20fc:	d5c30067          	jr	-676(t1) # 1e54 <__sflush_r>
    2100:	00b12623          	sw	a1,12(sp)
    2104:	ffffe097          	auipc	ra,0xffffe
    2108:	63c080e7          	jalr	1596(ra) # 740 <__sinit>
    210c:	00c12583          	lw	a1,12(sp)
    2110:	fbdff06f          	j	20cc <_fflush_r+0x1c>

00002114 <fflush>:
    2114:	06050663          	beqz	a0,2180 <fflush+0x6c>
    2118:	00050593          	mv	a1,a0
    211c:	00001517          	auipc	a0,0x1
    2120:	94852503          	lw	a0,-1720(a0) # 2a64 <_impure_ptr>
    2124:	00050663          	beqz	a0,2130 <fflush+0x1c>
    2128:	03452783          	lw	a5,52(a0)
    212c:	00078e63          	beqz	a5,2148 <fflush+0x34>
    2130:	00c59783          	lh	a5,12(a1)
    2134:	00079663          	bnez	a5,2140 <fflush+0x2c>
    2138:	00000513          	li	a0,0
    213c:	00008067          	ret
    2140:	00000317          	auipc	t1,0x0
    2144:	d1430067          	jr	-748(t1) # 1e54 <__sflush_r>
    2148:	fe010113          	addi	sp,sp,-32
    214c:	00b12623          	sw	a1,12(sp)
    2150:	00a12423          	sw	a0,8(sp)
    2154:	00112e23          	sw	ra,28(sp)
    2158:	ffffe097          	auipc	ra,0xffffe
    215c:	5e8080e7          	jalr	1512(ra) # 740 <__sinit>
    2160:	00c12583          	lw	a1,12(sp)
    2164:	00812503          	lw	a0,8(sp)
    2168:	00c59783          	lh	a5,12(a1)
    216c:	02079a63          	bnez	a5,21a0 <fflush+0x8c>
    2170:	01c12083          	lw	ra,28(sp)
    2174:	00000513          	li	a0,0
    2178:	02010113          	addi	sp,sp,32
    217c:	00008067          	ret
    2180:	00000617          	auipc	a2,0x0
    2184:	3a860613          	addi	a2,a2,936 # 2528 <__sglue>
    2188:	00000597          	auipc	a1,0x0
    218c:	f2858593          	addi	a1,a1,-216 # 20b0 <_fflush_r>
    2190:	00000517          	auipc	a0,0x0
    2194:	3a850513          	addi	a0,a0,936 # 2538 <_impure_data>
    2198:	ffffe317          	auipc	t1,0xffffe
    219c:	61430067          	jr	1556(t1) # 7ac <_fwalk_sglue>
    21a0:	01c12083          	lw	ra,28(sp)
    21a4:	02010113          	addi	sp,sp,32
    21a8:	00000317          	auipc	t1,0x0
    21ac:	cac30067          	jr	-852(t1) # 1e54 <__sflush_r>

000021b0 <_sbrk_r>:
    21b0:	ff010113          	addi	sp,sp,-16
    21b4:	00812423          	sw	s0,8(sp)
    21b8:	00050413          	mv	s0,a0
    21bc:	00058513          	mv	a0,a1
    21c0:	00001797          	auipc	a5,0x1
    21c4:	bc07aa23          	sw	zero,-1068(a5) # 2d94 <errno>
    21c8:	00112623          	sw	ra,12(sp)
    21cc:	00000097          	auipc	ra,0x0
    21d0:	268080e7          	jalr	616(ra) # 2434 <_sbrk>
    21d4:	fff00793          	li	a5,-1
    21d8:	00f50a63          	beq	a0,a5,21ec <_sbrk_r+0x3c>
    21dc:	00c12083          	lw	ra,12(sp)
    21e0:	00812403          	lw	s0,8(sp)
    21e4:	01010113          	addi	sp,sp,16
    21e8:	00008067          	ret
    21ec:	00912223          	sw	s1,4(sp)
    21f0:	00001497          	auipc	s1,0x1
    21f4:	ba448493          	addi	s1,s1,-1116 # 2d94 <errno>
    21f8:	0004a783          	lw	a5,0(s1)
    21fc:	00078e63          	beqz	a5,2218 <_sbrk_r+0x68>
    2200:	00c12083          	lw	ra,12(sp)
    2204:	00f42023          	sw	a5,0(s0)
    2208:	00812403          	lw	s0,8(sp)
    220c:	00412483          	lw	s1,4(sp)
    2210:	01010113          	addi	sp,sp,16
    2214:	00008067          	ret
    2218:	00c12083          	lw	ra,12(sp)
    221c:	00812403          	lw	s0,8(sp)
    2220:	00412483          	lw	s1,4(sp)
    2224:	01010113          	addi	sp,sp,16
    2228:	00008067          	ret

0000222c <__libc_fini_array>:
    222c:	ff010113          	addi	sp,sp,-16
    2230:	00812423          	sw	s0,8(sp)
    2234:	ffffe797          	auipc	a5,0xffffe
    2238:	dcc78793          	addi	a5,a5,-564 # 0 <_start>
    223c:	ffffe417          	auipc	s0,0xffffe
    2240:	dc440413          	addi	s0,s0,-572 # 0 <_start>
    2244:	40f40433          	sub	s0,s0,a5
    2248:	00912223          	sw	s1,4(sp)
    224c:	00112623          	sw	ra,12(sp)
    2250:	40245493          	srai	s1,s0,0x2
    2254:	02048063          	beqz	s1,2274 <__libc_fini_array+0x48>
    2258:	ffc40413          	addi	s0,s0,-4
    225c:	00f40433          	add	s0,s0,a5
    2260:	00042783          	lw	a5,0(s0)
    2264:	fff48493          	addi	s1,s1,-1
    2268:	ffc40413          	addi	s0,s0,-4
    226c:	000780e7          	jalr	a5
    2270:	fe0498e3          	bnez	s1,2260 <__libc_fini_array+0x34>
    2274:	00c12083          	lw	ra,12(sp)
    2278:	00812403          	lw	s0,8(sp)
    227c:	00412483          	lw	s1,4(sp)
    2280:	01010113          	addi	sp,sp,16
    2284:	00008067          	ret

00002288 <__register_exitproc>:
    2288:	00001717          	auipc	a4,0x1
    228c:	b1070713          	addi	a4,a4,-1264 # 2d98 <__atexit>
    2290:	00072783          	lw	a5,0(a4)
    2294:	04078c63          	beqz	a5,22ec <__register_exitproc+0x64>
    2298:	0047a703          	lw	a4,4(a5)
    229c:	01f00813          	li	a6,31
    22a0:	08e84063          	blt	a6,a4,2320 <__register_exitproc+0x98>
    22a4:	00271813          	slli	a6,a4,0x2
    22a8:	02050663          	beqz	a0,22d4 <__register_exitproc+0x4c>
    22ac:	01078333          	add	t1,a5,a6
    22b0:	08c32423          	sw	a2,136(t1)
    22b4:	1887a883          	lw	a7,392(a5)
    22b8:	00100613          	li	a2,1
    22bc:	00e61633          	sll	a2,a2,a4
    22c0:	00c8e8b3          	or	a7,a7,a2
    22c4:	1917a423          	sw	a7,392(a5)
    22c8:	10d32423          	sw	a3,264(t1)
    22cc:	00200693          	li	a3,2
    22d0:	02d50663          	beq	a0,a3,22fc <__register_exitproc+0x74>
    22d4:	00170713          	addi	a4,a4,1
    22d8:	00e7a223          	sw	a4,4(a5)
    22dc:	010787b3          	add	a5,a5,a6
    22e0:	00b7a423          	sw	a1,8(a5)
    22e4:	00000513          	li	a0,0
    22e8:	00008067          	ret
    22ec:	00001797          	auipc	a5,0x1
    22f0:	91078793          	addi	a5,a5,-1776 # 2bfc <__atexit0>
    22f4:	00f72023          	sw	a5,0(a4)
    22f8:	fa1ff06f          	j	2298 <__register_exitproc+0x10>
    22fc:	18c7a683          	lw	a3,396(a5)
    2300:	00170713          	addi	a4,a4,1
    2304:	00e7a223          	sw	a4,4(a5)
    2308:	00c6e6b3          	or	a3,a3,a2
    230c:	18d7a623          	sw	a3,396(a5)
    2310:	010787b3          	add	a5,a5,a6
    2314:	00b7a423          	sw	a1,8(a5)
    2318:	00000513          	li	a0,0
    231c:	00008067          	ret
    2320:	fff00513          	li	a0,-1
    2324:	00008067          	ret

00002328 <_close>:
    2328:	ff010113          	addi	sp,sp,-16
    232c:	00112623          	sw	ra,12(sp)
    2330:	00812423          	sw	s0,8(sp)
    2334:	03900893          	li	a7,57
    2338:	00000073          	ecall
    233c:	00050413          	mv	s0,a0
    2340:	00054c63          	bltz	a0,2358 <_close+0x30>
    2344:	00c12083          	lw	ra,12(sp)
    2348:	00040513          	mv	a0,s0
    234c:	00812403          	lw	s0,8(sp)
    2350:	01010113          	addi	sp,sp,16
    2354:	00008067          	ret
    2358:	40800433          	neg	s0,s0
    235c:	00000097          	auipc	ra,0x0
    2360:	1a4080e7          	jalr	420(ra) # 2500 <__errno>
    2364:	00852023          	sw	s0,0(a0)
    2368:	fff00413          	li	s0,-1
    236c:	fd9ff06f          	j	2344 <_close+0x1c>

00002370 <_exit>:
    2370:	05d00893          	li	a7,93
    2374:	00000073          	ecall
    2378:	00054463          	bltz	a0,2380 <_exit+0x10>
    237c:	0000006f          	j	237c <_exit+0xc>
    2380:	ff010113          	addi	sp,sp,-16
    2384:	00812423          	sw	s0,8(sp)
    2388:	00050413          	mv	s0,a0
    238c:	00112623          	sw	ra,12(sp)
    2390:	40800433          	neg	s0,s0
    2394:	00000097          	auipc	ra,0x0
    2398:	16c080e7          	jalr	364(ra) # 2500 <__errno>
    239c:	00852023          	sw	s0,0(a0)
    23a0:	0000006f          	j	23a0 <_exit+0x30>

000023a4 <_lseek>:
    23a4:	ff010113          	addi	sp,sp,-16
    23a8:	00112623          	sw	ra,12(sp)
    23ac:	00812423          	sw	s0,8(sp)
    23b0:	03e00893          	li	a7,62
    23b4:	00000073          	ecall
    23b8:	00050413          	mv	s0,a0
    23bc:	00054c63          	bltz	a0,23d4 <_lseek+0x30>
    23c0:	00c12083          	lw	ra,12(sp)
    23c4:	00040513          	mv	a0,s0
    23c8:	00812403          	lw	s0,8(sp)
    23cc:	01010113          	addi	sp,sp,16
    23d0:	00008067          	ret
    23d4:	40800433          	neg	s0,s0
    23d8:	00000097          	auipc	ra,0x0
    23dc:	128080e7          	jalr	296(ra) # 2500 <__errno>
    23e0:	00852023          	sw	s0,0(a0)
    23e4:	fff00413          	li	s0,-1
    23e8:	fd9ff06f          	j	23c0 <_lseek+0x1c>

000023ec <_read>:
    23ec:	ff010113          	addi	sp,sp,-16
    23f0:	00112623          	sw	ra,12(sp)
    23f4:	00812423          	sw	s0,8(sp)
    23f8:	03f00893          	li	a7,63
    23fc:	00000073          	ecall
    2400:	00050413          	mv	s0,a0
    2404:	00054c63          	bltz	a0,241c <_read+0x30>
    2408:	00c12083          	lw	ra,12(sp)
    240c:	00040513          	mv	a0,s0
    2410:	00812403          	lw	s0,8(sp)
    2414:	01010113          	addi	sp,sp,16
    2418:	00008067          	ret
    241c:	40800433          	neg	s0,s0
    2420:	00000097          	auipc	ra,0x0
    2424:	0e0080e7          	jalr	224(ra) # 2500 <__errno>
    2428:	00852023          	sw	s0,0(a0)
    242c:	fff00413          	li	s0,-1
    2430:	fd9ff06f          	j	2408 <_read+0x1c>

00002434 <_sbrk>:
    2434:	00001697          	auipc	a3,0x1
    2438:	97468693          	addi	a3,a3,-1676 # 2da8 <heap_end.0>
    243c:	0006a703          	lw	a4,0(a3)
    2440:	ff010113          	addi	sp,sp,-16
    2444:	00112623          	sw	ra,12(sp)
    2448:	00050793          	mv	a5,a0
    244c:	02071063          	bnez	a4,246c <_sbrk+0x38>
    2450:	0d600893          	li	a7,214
    2454:	00000513          	li	a0,0
    2458:	00000073          	ecall
    245c:	fff00613          	li	a2,-1
    2460:	00050713          	mv	a4,a0
    2464:	02c50a63          	beq	a0,a2,2498 <_sbrk+0x64>
    2468:	00a6a023          	sw	a0,0(a3)
    246c:	00e78533          	add	a0,a5,a4
    2470:	0d600893          	li	a7,214
    2474:	00000073          	ecall
    2478:	0006a703          	lw	a4,0(a3)
    247c:	00e787b3          	add	a5,a5,a4
    2480:	00f51c63          	bne	a0,a5,2498 <_sbrk+0x64>
    2484:	00c12083          	lw	ra,12(sp)
    2488:	00a6a023          	sw	a0,0(a3)
    248c:	00070513          	mv	a0,a4
    2490:	01010113          	addi	sp,sp,16
    2494:	00008067          	ret
    2498:	00000097          	auipc	ra,0x0
    249c:	068080e7          	jalr	104(ra) # 2500 <__errno>
    24a0:	00c12083          	lw	ra,12(sp)
    24a4:	00c00793          	li	a5,12
    24a8:	00f52023          	sw	a5,0(a0)
    24ac:	fff00513          	li	a0,-1
    24b0:	01010113          	addi	sp,sp,16
    24b4:	00008067          	ret

000024b8 <_write>:
    24b8:	ff010113          	addi	sp,sp,-16
    24bc:	00112623          	sw	ra,12(sp)
    24c0:	00812423          	sw	s0,8(sp)
    24c4:	04000893          	li	a7,64
    24c8:	00000073          	ecall
    24cc:	00050413          	mv	s0,a0
    24d0:	00054c63          	bltz	a0,24e8 <_write+0x30>
    24d4:	00c12083          	lw	ra,12(sp)
    24d8:	00040513          	mv	a0,s0
    24dc:	00812403          	lw	s0,8(sp)
    24e0:	01010113          	addi	sp,sp,16
    24e4:	00008067          	ret
    24e8:	40800433          	neg	s0,s0
    24ec:	00000097          	auipc	ra,0x0
    24f0:	014080e7          	jalr	20(ra) # 2500 <__errno>
    24f4:	00852023          	sw	s0,0(a0)
    24f8:	fff00413          	li	s0,-1
    24fc:	fd9ff06f          	j	24d4 <_write+0x1c>

00002500 <__errno>:
    2500:	00000517          	auipc	a0,0x0
    2504:	56452503          	lw	a0,1380(a0) # 2a64 <_impure_ptr>
    2508:	00008067          	ret

Disassembly of section .rodata:

0000250c <.rodata>:
    250c:	6548                	.insn	2, 0x6548
    250e:	6c6c                	.insn	2, 0x6c6c
    2510:	7244206f          	j	44c34 <_end+0x41e88>
    2514:	202e                	.insn	2, 0x202e
    2516:	614a                	.insn	2, 0x614a
    2518:	696d                	.insn	2, 0x696d
    251a:	7365                	.insn	2, 0x7365
    251c:	Address 0x251c is out of bounds.


Disassembly of section .eh_frame:

00002520 <__EH_FRAME_BEGIN__>:
    2520:	0000                	.insn	2, 0x
	...

Disassembly of section .data:

00002528 <__sglue>:
    2528:	0000                	.insn	2, 0x
    252a:	0000                	.insn	2, 0x
    252c:	00000003          	lb	zero,0(zero) # 0 <_start>
    2530:	2a9c                	.insn	2, 0x2a9c
    2532:	0000                	.insn	2, 0x
    2534:	0000                	.insn	2, 0x
	...

00002538 <_impure_data>:
    2538:	0000                	.insn	2, 0x
    253a:	0000                	.insn	2, 0x
    253c:	2a9c                	.insn	2, 0x2a9c
    253e:	0000                	.insn	2, 0x
    2540:	2b04                	.insn	2, 0x2b04
    2542:	0000                	.insn	2, 0x
    2544:	2b6c                	.insn	2, 0x2b6c
	...
    25ce:	0000                	.insn	2, 0x
    25d0:	0001                	.insn	2, 0x0001
    25d2:	0000                	.insn	2, 0x
    25d4:	0000                	.insn	2, 0x
    25d6:	0000                	.insn	2, 0x
    25d8:	330e                	.insn	2, 0x330e
    25da:	abcd                	.insn	2, 0xabcd
    25dc:	1234                	.insn	2, 0x1234
    25de:	e66d                	.insn	2, 0xe66d
    25e0:	deec                	.insn	2, 0xdeec
    25e2:	0005                	.insn	2, 0x0005
    25e4:	0000000b          	.insn	4, 0x000b
	...

00002658 <__malloc_av_>:
	...
    2660:	2658                	.insn	2, 0x2658
    2662:	0000                	.insn	2, 0x
    2664:	2658                	.insn	2, 0x2658
    2666:	0000                	.insn	2, 0x
    2668:	2660                	.insn	2, 0x2660
    266a:	0000                	.insn	2, 0x
    266c:	2660                	.insn	2, 0x2660
    266e:	0000                	.insn	2, 0x
    2670:	2668                	.insn	2, 0x2668
    2672:	0000                	.insn	2, 0x
    2674:	2668                	.insn	2, 0x2668
    2676:	0000                	.insn	2, 0x
    2678:	2670                	.insn	2, 0x2670
    267a:	0000                	.insn	2, 0x
    267c:	2670                	.insn	2, 0x2670
    267e:	0000                	.insn	2, 0x
    2680:	2678                	.insn	2, 0x2678
    2682:	0000                	.insn	2, 0x
    2684:	2678                	.insn	2, 0x2678
    2686:	0000                	.insn	2, 0x
    2688:	2680                	.insn	2, 0x2680
    268a:	0000                	.insn	2, 0x
    268c:	2680                	.insn	2, 0x2680
    268e:	0000                	.insn	2, 0x
    2690:	2688                	.insn	2, 0x2688
    2692:	0000                	.insn	2, 0x
    2694:	2688                	.insn	2, 0x2688
    2696:	0000                	.insn	2, 0x
    2698:	2690                	.insn	2, 0x2690
    269a:	0000                	.insn	2, 0x
    269c:	2690                	.insn	2, 0x2690
    269e:	0000                	.insn	2, 0x
    26a0:	2698                	.insn	2, 0x2698
    26a2:	0000                	.insn	2, 0x
    26a4:	2698                	.insn	2, 0x2698
    26a6:	0000                	.insn	2, 0x
    26a8:	26a0                	.insn	2, 0x26a0
    26aa:	0000                	.insn	2, 0x
    26ac:	26a0                	.insn	2, 0x26a0
    26ae:	0000                	.insn	2, 0x
    26b0:	26a8                	.insn	2, 0x26a8
    26b2:	0000                	.insn	2, 0x
    26b4:	26a8                	.insn	2, 0x26a8
    26b6:	0000                	.insn	2, 0x
    26b8:	26b0                	.insn	2, 0x26b0
    26ba:	0000                	.insn	2, 0x
    26bc:	26b0                	.insn	2, 0x26b0
    26be:	0000                	.insn	2, 0x
    26c0:	26b8                	.insn	2, 0x26b8
    26c2:	0000                	.insn	2, 0x
    26c4:	26b8                	.insn	2, 0x26b8
    26c6:	0000                	.insn	2, 0x
    26c8:	26c0                	.insn	2, 0x26c0
    26ca:	0000                	.insn	2, 0x
    26cc:	26c0                	.insn	2, 0x26c0
    26ce:	0000                	.insn	2, 0x
    26d0:	26c8                	.insn	2, 0x26c8
    26d2:	0000                	.insn	2, 0x
    26d4:	26c8                	.insn	2, 0x26c8
    26d6:	0000                	.insn	2, 0x
    26d8:	26d0                	.insn	2, 0x26d0
    26da:	0000                	.insn	2, 0x
    26dc:	26d0                	.insn	2, 0x26d0
    26de:	0000                	.insn	2, 0x
    26e0:	26d8                	.insn	2, 0x26d8
    26e2:	0000                	.insn	2, 0x
    26e4:	26d8                	.insn	2, 0x26d8
    26e6:	0000                	.insn	2, 0x
    26e8:	26e0                	.insn	2, 0x26e0
    26ea:	0000                	.insn	2, 0x
    26ec:	26e0                	.insn	2, 0x26e0
    26ee:	0000                	.insn	2, 0x
    26f0:	26e8                	.insn	2, 0x26e8
    26f2:	0000                	.insn	2, 0x
    26f4:	26e8                	.insn	2, 0x26e8
    26f6:	0000                	.insn	2, 0x
    26f8:	26f0                	.insn	2, 0x26f0
    26fa:	0000                	.insn	2, 0x
    26fc:	26f0                	.insn	2, 0x26f0
    26fe:	0000                	.insn	2, 0x
    2700:	26f8                	.insn	2, 0x26f8
    2702:	0000                	.insn	2, 0x
    2704:	26f8                	.insn	2, 0x26f8
    2706:	0000                	.insn	2, 0x
    2708:	2700                	.insn	2, 0x2700
    270a:	0000                	.insn	2, 0x
    270c:	2700                	.insn	2, 0x2700
    270e:	0000                	.insn	2, 0x
    2710:	2708                	.insn	2, 0x2708
    2712:	0000                	.insn	2, 0x
    2714:	2708                	.insn	2, 0x2708
    2716:	0000                	.insn	2, 0x
    2718:	2710                	.insn	2, 0x2710
    271a:	0000                	.insn	2, 0x
    271c:	2710                	.insn	2, 0x2710
    271e:	0000                	.insn	2, 0x
    2720:	2718                	.insn	2, 0x2718
    2722:	0000                	.insn	2, 0x
    2724:	2718                	.insn	2, 0x2718
    2726:	0000                	.insn	2, 0x
    2728:	2720                	.insn	2, 0x2720
    272a:	0000                	.insn	2, 0x
    272c:	2720                	.insn	2, 0x2720
    272e:	0000                	.insn	2, 0x
    2730:	2728                	.insn	2, 0x2728
    2732:	0000                	.insn	2, 0x
    2734:	2728                	.insn	2, 0x2728
    2736:	0000                	.insn	2, 0x
    2738:	2730                	.insn	2, 0x2730
    273a:	0000                	.insn	2, 0x
    273c:	2730                	.insn	2, 0x2730
    273e:	0000                	.insn	2, 0x
    2740:	2738                	.insn	2, 0x2738
    2742:	0000                	.insn	2, 0x
    2744:	2738                	.insn	2, 0x2738
    2746:	0000                	.insn	2, 0x
    2748:	2740                	.insn	2, 0x2740
    274a:	0000                	.insn	2, 0x
    274c:	2740                	.insn	2, 0x2740
    274e:	0000                	.insn	2, 0x
    2750:	2748                	.insn	2, 0x2748
    2752:	0000                	.insn	2, 0x
    2754:	2748                	.insn	2, 0x2748
    2756:	0000                	.insn	2, 0x
    2758:	2750                	.insn	2, 0x2750
    275a:	0000                	.insn	2, 0x
    275c:	2750                	.insn	2, 0x2750
    275e:	0000                	.insn	2, 0x
    2760:	2758                	.insn	2, 0x2758
    2762:	0000                	.insn	2, 0x
    2764:	2758                	.insn	2, 0x2758
    2766:	0000                	.insn	2, 0x
    2768:	2760                	.insn	2, 0x2760
    276a:	0000                	.insn	2, 0x
    276c:	2760                	.insn	2, 0x2760
    276e:	0000                	.insn	2, 0x
    2770:	2768                	.insn	2, 0x2768
    2772:	0000                	.insn	2, 0x
    2774:	2768                	.insn	2, 0x2768
    2776:	0000                	.insn	2, 0x
    2778:	2770                	.insn	2, 0x2770
    277a:	0000                	.insn	2, 0x
    277c:	2770                	.insn	2, 0x2770
    277e:	0000                	.insn	2, 0x
    2780:	2778                	.insn	2, 0x2778
    2782:	0000                	.insn	2, 0x
    2784:	2778                	.insn	2, 0x2778
    2786:	0000                	.insn	2, 0x
    2788:	2780                	.insn	2, 0x2780
    278a:	0000                	.insn	2, 0x
    278c:	2780                	.insn	2, 0x2780
    278e:	0000                	.insn	2, 0x
    2790:	2788                	.insn	2, 0x2788
    2792:	0000                	.insn	2, 0x
    2794:	2788                	.insn	2, 0x2788
    2796:	0000                	.insn	2, 0x
    2798:	2790                	.insn	2, 0x2790
    279a:	0000                	.insn	2, 0x
    279c:	2790                	.insn	2, 0x2790
    279e:	0000                	.insn	2, 0x
    27a0:	2798                	.insn	2, 0x2798
    27a2:	0000                	.insn	2, 0x
    27a4:	2798                	.insn	2, 0x2798
    27a6:	0000                	.insn	2, 0x
    27a8:	27a0                	.insn	2, 0x27a0
    27aa:	0000                	.insn	2, 0x
    27ac:	27a0                	.insn	2, 0x27a0
    27ae:	0000                	.insn	2, 0x
    27b0:	27a8                	.insn	2, 0x27a8
    27b2:	0000                	.insn	2, 0x
    27b4:	27a8                	.insn	2, 0x27a8
    27b6:	0000                	.insn	2, 0x
    27b8:	27b0                	.insn	2, 0x27b0
    27ba:	0000                	.insn	2, 0x
    27bc:	27b0                	.insn	2, 0x27b0
    27be:	0000                	.insn	2, 0x
    27c0:	27b8                	.insn	2, 0x27b8
    27c2:	0000                	.insn	2, 0x
    27c4:	27b8                	.insn	2, 0x27b8
    27c6:	0000                	.insn	2, 0x
    27c8:	27c0                	.insn	2, 0x27c0
    27ca:	0000                	.insn	2, 0x
    27cc:	27c0                	.insn	2, 0x27c0
    27ce:	0000                	.insn	2, 0x
    27d0:	27c8                	.insn	2, 0x27c8
    27d2:	0000                	.insn	2, 0x
    27d4:	27c8                	.insn	2, 0x27c8
    27d6:	0000                	.insn	2, 0x
    27d8:	27d0                	.insn	2, 0x27d0
    27da:	0000                	.insn	2, 0x
    27dc:	27d0                	.insn	2, 0x27d0
    27de:	0000                	.insn	2, 0x
    27e0:	27d8                	.insn	2, 0x27d8
    27e2:	0000                	.insn	2, 0x
    27e4:	27d8                	.insn	2, 0x27d8
    27e6:	0000                	.insn	2, 0x
    27e8:	27e0                	.insn	2, 0x27e0
    27ea:	0000                	.insn	2, 0x
    27ec:	27e0                	.insn	2, 0x27e0
    27ee:	0000                	.insn	2, 0x
    27f0:	27e8                	.insn	2, 0x27e8
    27f2:	0000                	.insn	2, 0x
    27f4:	27e8                	.insn	2, 0x27e8
    27f6:	0000                	.insn	2, 0x
    27f8:	27f0                	.insn	2, 0x27f0
    27fa:	0000                	.insn	2, 0x
    27fc:	27f0                	.insn	2, 0x27f0
    27fe:	0000                	.insn	2, 0x
    2800:	27f8                	.insn	2, 0x27f8
    2802:	0000                	.insn	2, 0x
    2804:	27f8                	.insn	2, 0x27f8
    2806:	0000                	.insn	2, 0x
    2808:	2800                	.insn	2, 0x2800
    280a:	0000                	.insn	2, 0x
    280c:	2800                	.insn	2, 0x2800
    280e:	0000                	.insn	2, 0x
    2810:	2808                	.insn	2, 0x2808
    2812:	0000                	.insn	2, 0x
    2814:	2808                	.insn	2, 0x2808
    2816:	0000                	.insn	2, 0x
    2818:	2810                	.insn	2, 0x2810
    281a:	0000                	.insn	2, 0x
    281c:	2810                	.insn	2, 0x2810
    281e:	0000                	.insn	2, 0x
    2820:	2818                	.insn	2, 0x2818
    2822:	0000                	.insn	2, 0x
    2824:	2818                	.insn	2, 0x2818
    2826:	0000                	.insn	2, 0x
    2828:	2820                	.insn	2, 0x2820
    282a:	0000                	.insn	2, 0x
    282c:	2820                	.insn	2, 0x2820
    282e:	0000                	.insn	2, 0x
    2830:	2828                	.insn	2, 0x2828
    2832:	0000                	.insn	2, 0x
    2834:	2828                	.insn	2, 0x2828
    2836:	0000                	.insn	2, 0x
    2838:	2830                	.insn	2, 0x2830
    283a:	0000                	.insn	2, 0x
    283c:	2830                	.insn	2, 0x2830
    283e:	0000                	.insn	2, 0x
    2840:	2838                	.insn	2, 0x2838
    2842:	0000                	.insn	2, 0x
    2844:	2838                	.insn	2, 0x2838
    2846:	0000                	.insn	2, 0x
    2848:	2840                	.insn	2, 0x2840
    284a:	0000                	.insn	2, 0x
    284c:	2840                	.insn	2, 0x2840
    284e:	0000                	.insn	2, 0x
    2850:	2848                	.insn	2, 0x2848
    2852:	0000                	.insn	2, 0x
    2854:	2848                	.insn	2, 0x2848
    2856:	0000                	.insn	2, 0x
    2858:	2850                	.insn	2, 0x2850
    285a:	0000                	.insn	2, 0x
    285c:	2850                	.insn	2, 0x2850
    285e:	0000                	.insn	2, 0x
    2860:	2858                	.insn	2, 0x2858
    2862:	0000                	.insn	2, 0x
    2864:	2858                	.insn	2, 0x2858
    2866:	0000                	.insn	2, 0x
    2868:	2860                	.insn	2, 0x2860
    286a:	0000                	.insn	2, 0x
    286c:	2860                	.insn	2, 0x2860
    286e:	0000                	.insn	2, 0x
    2870:	2868                	.insn	2, 0x2868
    2872:	0000                	.insn	2, 0x
    2874:	2868                	.insn	2, 0x2868
    2876:	0000                	.insn	2, 0x
    2878:	2870                	.insn	2, 0x2870
    287a:	0000                	.insn	2, 0x
    287c:	2870                	.insn	2, 0x2870
    287e:	0000                	.insn	2, 0x
    2880:	2878                	.insn	2, 0x2878
    2882:	0000                	.insn	2, 0x
    2884:	2878                	.insn	2, 0x2878
    2886:	0000                	.insn	2, 0x
    2888:	2880                	.insn	2, 0x2880
    288a:	0000                	.insn	2, 0x
    288c:	2880                	.insn	2, 0x2880
    288e:	0000                	.insn	2, 0x
    2890:	2888                	.insn	2, 0x2888
    2892:	0000                	.insn	2, 0x
    2894:	2888                	.insn	2, 0x2888
    2896:	0000                	.insn	2, 0x
    2898:	2890                	.insn	2, 0x2890
    289a:	0000                	.insn	2, 0x
    289c:	2890                	.insn	2, 0x2890
    289e:	0000                	.insn	2, 0x
    28a0:	2898                	.insn	2, 0x2898
    28a2:	0000                	.insn	2, 0x
    28a4:	2898                	.insn	2, 0x2898
    28a6:	0000                	.insn	2, 0x
    28a8:	28a0                	.insn	2, 0x28a0
    28aa:	0000                	.insn	2, 0x
    28ac:	28a0                	.insn	2, 0x28a0
    28ae:	0000                	.insn	2, 0x
    28b0:	28a8                	.insn	2, 0x28a8
    28b2:	0000                	.insn	2, 0x
    28b4:	28a8                	.insn	2, 0x28a8
    28b6:	0000                	.insn	2, 0x
    28b8:	28b0                	.insn	2, 0x28b0
    28ba:	0000                	.insn	2, 0x
    28bc:	28b0                	.insn	2, 0x28b0
    28be:	0000                	.insn	2, 0x
    28c0:	28b8                	.insn	2, 0x28b8
    28c2:	0000                	.insn	2, 0x
    28c4:	28b8                	.insn	2, 0x28b8
    28c6:	0000                	.insn	2, 0x
    28c8:	28c0                	.insn	2, 0x28c0
    28ca:	0000                	.insn	2, 0x
    28cc:	28c0                	.insn	2, 0x28c0
    28ce:	0000                	.insn	2, 0x
    28d0:	28c8                	.insn	2, 0x28c8
    28d2:	0000                	.insn	2, 0x
    28d4:	28c8                	.insn	2, 0x28c8
    28d6:	0000                	.insn	2, 0x
    28d8:	28d0                	.insn	2, 0x28d0
    28da:	0000                	.insn	2, 0x
    28dc:	28d0                	.insn	2, 0x28d0
    28de:	0000                	.insn	2, 0x
    28e0:	28d8                	.insn	2, 0x28d8
    28e2:	0000                	.insn	2, 0x
    28e4:	28d8                	.insn	2, 0x28d8
    28e6:	0000                	.insn	2, 0x
    28e8:	28e0                	.insn	2, 0x28e0
    28ea:	0000                	.insn	2, 0x
    28ec:	28e0                	.insn	2, 0x28e0
    28ee:	0000                	.insn	2, 0x
    28f0:	28e8                	.insn	2, 0x28e8
    28f2:	0000                	.insn	2, 0x
    28f4:	28e8                	.insn	2, 0x28e8
    28f6:	0000                	.insn	2, 0x
    28f8:	28f0                	.insn	2, 0x28f0
    28fa:	0000                	.insn	2, 0x
    28fc:	28f0                	.insn	2, 0x28f0
    28fe:	0000                	.insn	2, 0x
    2900:	28f8                	.insn	2, 0x28f8
    2902:	0000                	.insn	2, 0x
    2904:	28f8                	.insn	2, 0x28f8
    2906:	0000                	.insn	2, 0x
    2908:	2900                	.insn	2, 0x2900
    290a:	0000                	.insn	2, 0x
    290c:	2900                	.insn	2, 0x2900
    290e:	0000                	.insn	2, 0x
    2910:	2908                	.insn	2, 0x2908
    2912:	0000                	.insn	2, 0x
    2914:	2908                	.insn	2, 0x2908
    2916:	0000                	.insn	2, 0x
    2918:	2910                	.insn	2, 0x2910
    291a:	0000                	.insn	2, 0x
    291c:	2910                	.insn	2, 0x2910
    291e:	0000                	.insn	2, 0x
    2920:	2918                	.insn	2, 0x2918
    2922:	0000                	.insn	2, 0x
    2924:	2918                	.insn	2, 0x2918
    2926:	0000                	.insn	2, 0x
    2928:	2920                	.insn	2, 0x2920
    292a:	0000                	.insn	2, 0x
    292c:	2920                	.insn	2, 0x2920
    292e:	0000                	.insn	2, 0x
    2930:	2928                	.insn	2, 0x2928
    2932:	0000                	.insn	2, 0x
    2934:	2928                	.insn	2, 0x2928
    2936:	0000                	.insn	2, 0x
    2938:	2930                	.insn	2, 0x2930
    293a:	0000                	.insn	2, 0x
    293c:	2930                	.insn	2, 0x2930
    293e:	0000                	.insn	2, 0x
    2940:	2938                	.insn	2, 0x2938
    2942:	0000                	.insn	2, 0x
    2944:	2938                	.insn	2, 0x2938
    2946:	0000                	.insn	2, 0x
    2948:	2940                	.insn	2, 0x2940
    294a:	0000                	.insn	2, 0x
    294c:	2940                	.insn	2, 0x2940
    294e:	0000                	.insn	2, 0x
    2950:	2948                	.insn	2, 0x2948
    2952:	0000                	.insn	2, 0x
    2954:	2948                	.insn	2, 0x2948
    2956:	0000                	.insn	2, 0x
    2958:	2950                	.insn	2, 0x2950
    295a:	0000                	.insn	2, 0x
    295c:	2950                	.insn	2, 0x2950
    295e:	0000                	.insn	2, 0x
    2960:	2958                	.insn	2, 0x2958
    2962:	0000                	.insn	2, 0x
    2964:	2958                	.insn	2, 0x2958
    2966:	0000                	.insn	2, 0x
    2968:	2960                	.insn	2, 0x2960
    296a:	0000                	.insn	2, 0x
    296c:	2960                	.insn	2, 0x2960
    296e:	0000                	.insn	2, 0x
    2970:	2968                	.insn	2, 0x2968
    2972:	0000                	.insn	2, 0x
    2974:	2968                	.insn	2, 0x2968
    2976:	0000                	.insn	2, 0x
    2978:	2970                	.insn	2, 0x2970
    297a:	0000                	.insn	2, 0x
    297c:	2970                	.insn	2, 0x2970
    297e:	0000                	.insn	2, 0x
    2980:	2978                	.insn	2, 0x2978
    2982:	0000                	.insn	2, 0x
    2984:	2978                	.insn	2, 0x2978
    2986:	0000                	.insn	2, 0x
    2988:	2980                	.insn	2, 0x2980
    298a:	0000                	.insn	2, 0x
    298c:	2980                	.insn	2, 0x2980
    298e:	0000                	.insn	2, 0x
    2990:	2988                	.insn	2, 0x2988
    2992:	0000                	.insn	2, 0x
    2994:	2988                	.insn	2, 0x2988
    2996:	0000                	.insn	2, 0x
    2998:	2990                	.insn	2, 0x2990
    299a:	0000                	.insn	2, 0x
    299c:	2990                	.insn	2, 0x2990
    299e:	0000                	.insn	2, 0x
    29a0:	2998                	.insn	2, 0x2998
    29a2:	0000                	.insn	2, 0x
    29a4:	2998                	.insn	2, 0x2998
    29a6:	0000                	.insn	2, 0x
    29a8:	29a0                	.insn	2, 0x29a0
    29aa:	0000                	.insn	2, 0x
    29ac:	29a0                	.insn	2, 0x29a0
    29ae:	0000                	.insn	2, 0x
    29b0:	29a8                	.insn	2, 0x29a8
    29b2:	0000                	.insn	2, 0x
    29b4:	29a8                	.insn	2, 0x29a8
    29b6:	0000                	.insn	2, 0x
    29b8:	29b0                	.insn	2, 0x29b0
    29ba:	0000                	.insn	2, 0x
    29bc:	29b0                	.insn	2, 0x29b0
    29be:	0000                	.insn	2, 0x
    29c0:	29b8                	.insn	2, 0x29b8
    29c2:	0000                	.insn	2, 0x
    29c4:	29b8                	.insn	2, 0x29b8
    29c6:	0000                	.insn	2, 0x
    29c8:	29c0                	.insn	2, 0x29c0
    29ca:	0000                	.insn	2, 0x
    29cc:	29c0                	.insn	2, 0x29c0
    29ce:	0000                	.insn	2, 0x
    29d0:	29c8                	.insn	2, 0x29c8
    29d2:	0000                	.insn	2, 0x
    29d4:	29c8                	.insn	2, 0x29c8
    29d6:	0000                	.insn	2, 0x
    29d8:	29d0                	.insn	2, 0x29d0
    29da:	0000                	.insn	2, 0x
    29dc:	29d0                	.insn	2, 0x29d0
    29de:	0000                	.insn	2, 0x
    29e0:	29d8                	.insn	2, 0x29d8
    29e2:	0000                	.insn	2, 0x
    29e4:	29d8                	.insn	2, 0x29d8
    29e6:	0000                	.insn	2, 0x
    29e8:	29e0                	.insn	2, 0x29e0
    29ea:	0000                	.insn	2, 0x
    29ec:	29e0                	.insn	2, 0x29e0
    29ee:	0000                	.insn	2, 0x
    29f0:	29e8                	.insn	2, 0x29e8
    29f2:	0000                	.insn	2, 0x
    29f4:	29e8                	.insn	2, 0x29e8
    29f6:	0000                	.insn	2, 0x
    29f8:	29f0                	.insn	2, 0x29f0
    29fa:	0000                	.insn	2, 0x
    29fc:	29f0                	.insn	2, 0x29f0
    29fe:	0000                	.insn	2, 0x
    2a00:	29f8                	.insn	2, 0x29f8
    2a02:	0000                	.insn	2, 0x
    2a04:	29f8                	.insn	2, 0x29f8
    2a06:	0000                	.insn	2, 0x
    2a08:	2a00                	.insn	2, 0x2a00
    2a0a:	0000                	.insn	2, 0x
    2a0c:	2a00                	.insn	2, 0x2a00
    2a0e:	0000                	.insn	2, 0x
    2a10:	2a08                	.insn	2, 0x2a08
    2a12:	0000                	.insn	2, 0x
    2a14:	2a08                	.insn	2, 0x2a08
    2a16:	0000                	.insn	2, 0x
    2a18:	2a10                	.insn	2, 0x2a10
    2a1a:	0000                	.insn	2, 0x
    2a1c:	2a10                	.insn	2, 0x2a10
    2a1e:	0000                	.insn	2, 0x
    2a20:	2a18                	.insn	2, 0x2a18
    2a22:	0000                	.insn	2, 0x
    2a24:	2a18                	.insn	2, 0x2a18
    2a26:	0000                	.insn	2, 0x
    2a28:	2a20                	.insn	2, 0x2a20
    2a2a:	0000                	.insn	2, 0x
    2a2c:	2a20                	.insn	2, 0x2a20
    2a2e:	0000                	.insn	2, 0x
    2a30:	2a28                	.insn	2, 0x2a28
    2a32:	0000                	.insn	2, 0x
    2a34:	2a28                	.insn	2, 0x2a28
    2a36:	0000                	.insn	2, 0x
    2a38:	2a30                	.insn	2, 0x2a30
    2a3a:	0000                	.insn	2, 0x
    2a3c:	2a30                	.insn	2, 0x2a30
    2a3e:	0000                	.insn	2, 0x
    2a40:	2a38                	.insn	2, 0x2a38
    2a42:	0000                	.insn	2, 0x
    2a44:	2a38                	.insn	2, 0x2a38
    2a46:	0000                	.insn	2, 0x
    2a48:	2a40                	.insn	2, 0x2a40
    2a4a:	0000                	.insn	2, 0x
    2a4c:	2a40                	.insn	2, 0x2a40
    2a4e:	0000                	.insn	2, 0x
    2a50:	2a48                	.insn	2, 0x2a48
    2a52:	0000                	.insn	2, 0x
    2a54:	2a48                	.insn	2, 0x2a48
    2a56:	0000                	.insn	2, 0x
    2a58:	2a50                	.insn	2, 0x2a50
    2a5a:	0000                	.insn	2, 0x
    2a5c:	2a50                	.insn	2, 0x2a50
	...

00002a60 <__dso_handle>:
    2a60:	0000                	.insn	2, 0x
	...

00002a64 <_impure_ptr>:
    2a64:	2538                	.insn	2, 0x2538
	...

00002a68 <__malloc_sbrk_base>:
    2a68:	ffff                	.insn	2, 0xffff
    2a6a:	ffff                	.insn	2, 0xffff

00002a6c <__malloc_trim_threshold>:
    2a6c:	0000                	.insn	2, 0x
    2a6e:	0002                	.insn	2, 0x0002

Disassembly of section .fini_array:

00002a70 <__do_global_dtors_aux_fini_array_entry>:
    2a70:	0068                	.insn	2, 0x0068
	...

Disassembly of section .init_array:

00002a74 <__frame_dummy_init_array_entry>:
    2a74:	00c4                	.insn	2, 0x00c4
	...

Disassembly of section .init_array.00000:

00002a78 <.init_array.00000>:
    2a78:	0ed8                	.insn	2, 0x0ed8
	...

Disassembly of section .riscv.attributes:

00000000 <.riscv.attributes>:
   0:	1b41                	.insn	2, 0x1b41
   2:	0000                	.insn	2, 0x
   4:	7200                	.insn	2, 0x7200
   6:	7369                	.insn	2, 0x7369
   8:	01007663          	bgeu	zero,a6,14 <_start+0x14>
   c:	0011                	.insn	2, 0x0011
   e:	0000                	.insn	2, 0x
  10:	1004                	.insn	2, 0x1004
  12:	7205                	.insn	2, 0x7205
  14:	3376                	.insn	2, 0x3376
  16:	6932                	.insn	2, 0x6932
  18:	7032                	.insn	2, 0x7032
  1a:	0031                	.insn	2, 0x0031

Disassembly of section .comment:

00000000 <.comment>:
   0:	3a434347          	.insn	4, 0x3a434347
   4:	2820                	.insn	2, 0x2820
   6:	36343067          	.insn	4, 0x36343067
   a:	3639                	.insn	2, 0x3639
   c:	6664                	.insn	2, 0x6664
   e:	3930                	.insn	2, 0x3930
  10:	2029                	.insn	2, 0x2029
  12:	3431                	.insn	2, 0x3431
  14:	322e                	.insn	2, 0x322e
  16:	302e                	.insn	2, 0x302e
  18:	4700                	.insn	2, 0x4700
  1a:	203a4343          	.insn	4, 0x203a4343
  1e:	4728                	.insn	2, 0x4728
  20:	554e                	.insn	2, 0x554e
  22:	2029                	.insn	2, 0x2029
  24:	3431                	.insn	2, 0x3431
  26:	322e                	.insn	2, 0x322e
  28:	302e                	.insn	2, 0x302e
	...

Disassembly of section .debug_info:

00000000 <.debug_info>:
   0:	00d4                	.insn	2, 0x00d4
   2:	0000                	.insn	2, 0x
   4:	0005                	.insn	2, 0x0005
   6:	0401                	.insn	2, 0x0401
   8:	0000                	.insn	2, 0x
   a:	0000                	.insn	2, 0x
   c:	00001e03          	lh	t3,0(zero) # 0 <_start>
  10:	1d00                	.insn	2, 0x1d00
  12:	0000                	.insn	2, 0x
  14:	0000                	.insn	2, 0x
  16:	0000000b          	.insn	4, 0x000b
  1a:	0018                	.insn	2, 0x0018
	...
  24:	0000                	.insn	2, 0x
  26:	b104                	.insn	2, 0xb104
  28:	0000                	.insn	2, 0x
  2a:	0200                	.insn	2, 0x0200
  2c:	0609                	.insn	2, 0x0609
  2e:	0034                	.insn	2, 0x0034
  30:	0000                	.insn	2, 0x
  32:	0005                	.insn	2, 0x0005
  34:	0006                	.insn	2, 0x0006
  36:	0000                	.insn	2, 0x
  38:	0200                	.insn	2, 0x0200
  3a:	0606                	.insn	2, 0x0606
  3c:	0000004b          	.insn	4, 0x004b
  40:	4b01                	.insn	2, 0x4b01
  42:	0000                	.insn	2, 0x
  44:	0100                	.insn	2, 0x0100
  46:	0058                	.insn	2, 0x0058
  48:	0000                	.insn	2, 0x
  4a:	0700                	.insn	2, 0x0700
  4c:	5104                	.insn	2, 0x5104
  4e:	0000                	.insn	2, 0x
  50:	0800                	.insn	2, 0x0800
  52:	0801                	.insn	2, 0x0801
  54:	00e9                	.insn	2, 0x00e9
  56:	0000                	.insn	2, 0x
  58:	0409                	.insn	2, 0x0409
  5a:	6905                	.insn	2, 0x6905
  5c:	746e                	.insn	2, 0x746e
  5e:	0a00                	.insn	2, 0x0a00
  60:	000c                	.insn	2, 0x000c
  62:	0000                	.insn	2, 0x
  64:	0301                	.insn	2, 0x0301
  66:	5805                	.insn	2, 0x5805
  68:	0000                	.insn	2, 0x
  6a:	ec00                	.insn	2, 0xec00
  6c:	0000                	.insn	2, 0x
  6e:	5000                	.insn	2, 0x5000
  70:	0000                	.insn	2, 0x
  72:	0100                	.insn	2, 0x0100
  74:	0b9c                	.insn	2, 0x0b9c
  76:	0011                	.insn	2, 0x0011
  78:	0000                	.insn	2, 0x
  7a:	0501                	.insn	2, 0x0501
  7c:	5809                	.insn	2, 0x5809
  7e:	0000                	.insn	2, 0x
  80:	0c00                	.insn	2, 0x0c00
  82:	0000                	.insn	2, 0x
  84:	0c00                	.insn	2, 0x0c00
  86:	00000017          	auipc	zero,0x0
  8a:	0601                	.insn	2, 0x0601
  8c:	00004b0b          	.insn	4, 0x4b0b
  90:	0600                	.insn	2, 0x0600
  92:	00250c03          	lb	s8,2(a0)
  96:	9f00                	.insn	2, 0x9f00
  98:	0c0d                	.insn	2, 0x0c0d
  9a:	0000                	.insn	2, 0x
  9c:	b000                	.insn	2, 0xb000
  9e:	0000                	.insn	2, 0x
  a0:	0e00                	.insn	2, 0x0e00
  a2:	0069                	.insn	2, 0x0069
  a4:	0b01                	.insn	2, 0x0b01
  a6:	5812                	.insn	2, 0x5812
  a8:	0000                	.insn	2, 0x
  aa:	1d00                	.insn	2, 0x1d00
  ac:	0000                	.insn	2, 0x
  ae:	0000                	.insn	2, 0x
  b0:	00011c0f          	.insn	4, 0x00011c0f
  b4:	3400                	.insn	2, 0x3400
  b6:	0000                	.insn	2, 0x
  b8:	cd00                	.insn	2, 0xcd00
  ba:	0000                	.insn	2, 0x
  bc:	0200                	.insn	2, 0x0200
  be:	5a01                	.insn	2, 0x5a01
  c0:	0305                	.insn	2, 0x0305
  c2:	250c                	.insn	2, 0x250c
  c4:	0000                	.insn	2, 0x
  c6:	0102                	.insn	2, 0x0102
  c8:	0078025b          	.insn	4, 0x0078025b
  cc:	1000                	.insn	2, 0x1000
  ce:	0124                	.insn	2, 0x0124
  d0:	0000                	.insn	2, 0x
  d2:	0026                	.insn	2, 0x0026
  d4:	0000                	.insn	2, 0x
  d6:	0000                	.insn	2, 0x
  d8:	02ea                	.insn	2, 0x02ea
  da:	0000                	.insn	2, 0x
  dc:	0005                	.insn	2, 0x0005
  de:	0401                	.insn	2, 0x0401
  e0:	00d9                	.insn	2, 0x00d9
  e2:	0000                	.insn	2, 0x
  e4:	1e0e                	.insn	2, 0x1e0e
  e6:	0000                	.insn	2, 0x
  e8:	1d00                	.insn	2, 0x1d00
  ea:	004a                	.insn	2, 0x004a
  ec:	0000                	.insn	2, 0x
  ee:	0000000b          	.insn	4, 0x000b
  f2:	0046                	.insn	2, 0x0046
  f4:	0000                	.insn	2, 0x
  f6:	0000                	.insn	2, 0x
  f8:	0000                	.insn	2, 0x
  fa:	00d1                	.insn	2, 0x00d1
  fc:	0000                	.insn	2, 0x
  fe:	0801                	.insn	2, 0x0801
 100:	00011307          	.insn	4, 0x00011307
 104:	0100                	.insn	2, 0x0100
 106:	0704                	.insn	2, 0x0704
 108:	011d                	.insn	2, 0x011d
 10a:	0000                	.insn	2, 0x
 10c:	0101                	.insn	2, 0x0101
 10e:	e008                	.insn	2, 0xe008
 110:	0000                	.insn	2, 0x
 112:	0f00                	.insn	2, 0x0f00
 114:	0504                	.insn	2, 0x0504
 116:	6e69                	.insn	2, 0x6e69
 118:	0074                	.insn	2, 0x0074
 11a:	b710                	.insn	2, 0xb710
 11c:	0000                	.insn	2, 0x
 11e:	0200                	.insn	2, 0x0200
 120:	17d6                	.insn	2, 0x17d6
 122:	002d                	.insn	2, 0x002d
 124:	0000                	.insn	2, 0x
 126:	0801                	.insn	2, 0x0801
 128:	4405                	.insn	2, 0x4405
 12a:	0001                	.insn	2, 0x0001
 12c:	0100                	.insn	2, 0x0100
 12e:	0410                	.insn	2, 0x0410
 130:	0169                	.insn	2, 0x0169
 132:	0000                	.insn	2, 0x
 134:	0101                	.insn	2, 0x0101
 136:	e206                	.insn	2, 0xe206
 138:	0000                	.insn	2, 0x
 13a:	0100                	.insn	2, 0x0100
 13c:	0502                	.insn	2, 0x0502
 13e:	015f 0000 0201      	.insn	6, 0x02010000015f
 144:	0000f707          	.insn	4, 0xf707
 148:	0100                	.insn	2, 0x0100
 14a:	0504                	.insn	2, 0x0504
 14c:	0149                	.insn	2, 0x0149
 14e:	0000                	.insn	2, 0x
 150:	0401                	.insn	2, 0x0401
 152:	00011807          	.insn	4, 0x00011807
 156:	0800                	.insn	2, 0x0800
 158:	0084                	.insn	2, 0x0084
 15a:	0000                	.insn	2, 0x
 15c:	0101                	.insn	2, 0x0101
 15e:	e908                	.insn	2, 0xe908
 160:	0000                	.insn	2, 0x
 162:	1100                	.insn	2, 0x1100
 164:	0084                	.insn	2, 0x0084
 166:	0000                	.insn	2, 0x
 168:	8b08                	.insn	2, 0x8b08
 16a:	0000                	.insn	2, 0x
 16c:	1200                	.insn	2, 0x1200
 16e:	012a                	.insn	2, 0x012a
 170:	0000                	.insn	2, 0x
 172:	1501                	.insn	2, 0x1501
 174:	3b05                	.insn	2, 0x3b05
 176:	0000                	.insn	2, 0x
 178:	0500                	.insn	2, 0x0500
 17a:	002d8c03          	lb	s8,2(s11)
 17e:	1300                	.insn	2, 0x1300
 180:	00c6                	.insn	2, 0x00c6
 182:	0000                	.insn	2, 0x
 184:	42092903          	lw	s2,1056(s2)
 188:	0000                	.insn	2, 0x
 18a:	bd00                	.insn	2, 0xbd00
 18c:	0000                	.insn	2, 0x
 18e:	1400                	.insn	2, 0x1400
 190:	0090                	.insn	2, 0x0090
 192:	0000                	.insn	2, 0x
 194:	1500                	.insn	2, 0x1500
 196:	00b1                	.insn	2, 0x00b1
 198:	0000                	.insn	2, 0x
 19a:	3e01                	.insn	2, 0x3e01
 19c:	e406                	.insn	2, 0xe406
 19e:	0002                	.insn	2, 0x0002
 1a0:	0c00                	.insn	2, 0x0c00
 1a2:	0000                	.insn	2, 0x
 1a4:	0100                	.insn	2, 0x0100
 1a6:	169c                	.insn	2, 0x169c
 1a8:	00be                	.insn	2, 0x00be
 1aa:	0000                	.insn	2, 0x
 1ac:	3701                	.insn	2, 0x3701
 1ae:	9c06                	.insn	2, 0x9c06
 1b0:	0002                	.insn	2, 0x0002
 1b2:	4800                	.insn	2, 0x4800
 1b4:	0000                	.insn	2, 0x
 1b6:	0100                	.insn	2, 0x0100
 1b8:	ef9c                	.insn	2, 0xef9c
 1ba:	0000                	.insn	2, 0x
 1bc:	0500                	.insn	2, 0x0500
 1be:	02c4                	.insn	2, 0x02c4
 1c0:	0000                	.insn	2, 0x
 1c2:	000002db          	.insn	4, 0x02db
 1c6:	0300                	.insn	2, 0x0300
 1c8:	000000d7          	.insn	4, 0x00d7
 1cc:	0002142b          	.insn	4, 0x0002142b
 1d0:	8800                	.insn	2, 0x8800
 1d2:	0000                	.insn	2, 0x
 1d4:	0100                	.insn	2, 0x0100
 1d6:	719c                	.insn	2, 0x719c
 1d8:	0001                	.insn	2, 0x0001
 1da:	0600                	.insn	2, 0x0600
 1dc:	0069                	.insn	2, 0x0069
 1de:	003b132b          	.insn	4, 0x003b132b
 1e2:	0000                	.insn	2, 0x
 1e4:	004d                	.insn	2, 0x004d
 1e6:	0000                	.insn	2, 0x
 1e8:	1104                	.insn	2, 0x1104
 1ea:	0000                	.insn	2, 0x
 1ec:	2b00                	.insn	2, 0x2b00
 1ee:	3b1a                	.insn	2, 0x3b1a
 1f0:	0000                	.insn	2, 0x
 1f2:	5d00                	.insn	2, 0x5d00
 1f4:	0000                	.insn	2, 0x
 1f6:	0900                	.insn	2, 0x0900
 1f8:	023c                	.insn	2, 0x023c
 1fa:	0000                	.insn	2, 0x
 1fc:	0249                	.insn	2, 0x0249
 1fe:	0000                	.insn	2, 0x
 200:	00000133          	add	sp,zero,zero
 204:	0102                	.insn	2, 0x0102
 206:	025a                	.insn	2, 0x025a
 208:	2d08                	.insn	2, 0x2d08
 20a:	0500                	.insn	2, 0x0500
 20c:	025c                	.insn	2, 0x025c
 20e:	0000                	.insn	2, 0x
 210:	02e4                	.insn	2, 0x02e4
 212:	0000                	.insn	2, 0x
 214:	6809                	.insn	2, 0x6809
 216:	0002                	.insn	2, 0x0002
 218:	ef00                	.insn	2, 0xef00
 21a:	0000                	.insn	2, 0x
 21c:	5000                	.insn	2, 0x5000
 21e:	0001                	.insn	2, 0x0001
 220:	0200                	.insn	2, 0x0200
 222:	5b01                	.insn	2, 0x5b01
 224:	7902                	.insn	2, 0x7902
 226:	0000                	.insn	2, 0x
 228:	7805                	.insn	2, 0x7805
 22a:	0002                	.insn	2, 0x0002
 22c:	db00                	.insn	2, 0xdb00
 22e:	0002                	.insn	2, 0x0002
 230:	0a00                	.insn	2, 0x0a00
 232:	029c                	.insn	2, 0x029c
 234:	0000                	.insn	2, 0x
 236:	01ee                	.insn	2, 0x01ee
 238:	0000                	.insn	2, 0x
 23a:	0102                	.insn	2, 0x0102
 23c:	03a3095b          	.insn	4, 0x03a3095b
 240:	0ba5                	.insn	2, 0x0ba5
 242:	a826                	.insn	2, 0xa826
 244:	a82d                	.insn	2, 0xa82d
 246:	0000                	.insn	2, 0x
 248:	0300                	.insn	2, 0x0300
 24a:	0000                	.insn	2, 0x
 24c:	0000                	.insn	2, 0x
 24e:	b022                	.insn	2, 0xb022
 250:	0001                	.insn	2, 0x0001
 252:	6400                	.insn	2, 0x6400
 254:	0000                	.insn	2, 0x
 256:	0100                	.insn	2, 0x0100
 258:	ee9c                	.insn	2, 0xee9c
 25a:	0001                	.insn	2, 0x0001
 25c:	0400                	.insn	2, 0x0400
 25e:	00000017          	auipc	zero,0x0
 262:	1722                	.insn	2, 0x1722
 264:	007f 0000 0083 0000 	.insn	10, 0x1104000000830000007f
 26c:	1104 
 26e:	0000                	.insn	2, 0x
 270:	2200                	.insn	2, 0x2200
 272:	3b25                	.insn	2, 0x3b25
 274:	0000                	.insn	2, 0x
 276:	a600                	.insn	2, 0xa600
 278:	0000                	.insn	2, 0x
 27a:	1700                	.insn	2, 0x1700
 27c:	0000002b          	.insn	4, 0x002b
 280:	2400690b          	.insn	4, 0x2400690b
 284:	3b0c                	.insn	2, 0x3b0c
 286:	0000                	.insn	2, 0x
 288:	c900                	.insn	2, 0xc900
 28a:	0000                	.insn	2, 0x
 28c:	1800                	.insn	2, 0x1800
 28e:	003a                	.insn	2, 0x003a
 290:	0000                	.insn	2, 0x
 292:	01dc                	.insn	2, 0x01dc
 294:	0000                	.insn	2, 0x
 296:	2600630b          	.insn	4, 0x2600630b
 29a:	840a                	.insn	2, 0x840a
 29c:	0000                	.insn	2, 0x
 29e:	e600                	.insn	2, 0xe600
 2a0:	0000                	.insn	2, 0x
 2a2:	0700                	.insn	2, 0x0700
 2a4:	0210                	.insn	2, 0x0210
 2a6:	0000                	.insn	2, 0x
 2a8:	01ee                	.insn	2, 0x01ee
 2aa:	0000                	.insn	2, 0x
 2ac:	0102                	.insn	2, 0x0102
 2ae:	0082025b          	.insn	4, 0x0082025b
 2b2:	0000                	.insn	2, 0x
 2b4:	0001dc07          	.insn	4, 0x0001dc07
 2b8:	a700                	.insn	2, 0xa700
 2ba:	0000                	.insn	2, 0x
 2bc:	0200                	.insn	2, 0x0200
 2be:	5a01                	.insn	2, 0x5a01
 2c0:	7902                	.insn	2, 0x7902
 2c2:	0000                	.insn	2, 0x
 2c4:	0000                	.insn	2, 0x
 2c6:	00013503          	.insn	4, 0x00013503
 2ca:	1c00                	.insn	2, 0x1c00
 2cc:	015c                	.insn	2, 0x015c
 2ce:	0000                	.insn	2, 0x
 2d0:	0044                	.insn	2, 0x0044
 2d2:	0000                	.insn	2, 0x
 2d4:	9c01                	.insn	2, 0x9c01
 2d6:	0249                	.insn	2, 0x0249
 2d8:	0000                	.insn	2, 0x
 2da:	6306                	.insn	2, 0x6306
 2dc:	1c00                	.insn	2, 0x1c00
 2de:	841a                	.insn	2, 0x841a
 2e0:	0000                	.insn	2, 0x
 2e2:	fb00                	.insn	2, 0xfb00
 2e4:	0000                	.insn	2, 0x
 2e6:	0400                	.insn	2, 0x0400
 2e8:	0011                	.insn	2, 0x0011
 2ea:	0000                	.insn	2, 0x
 2ec:	211c                	.insn	2, 0x211c
 2ee:	0000003b          	.insn	4, 0x003b
 2f2:	0114                	.insn	2, 0x0114
 2f4:	0000                	.insn	2, 0x
 2f6:	00018407          	.insn	4, 0x00018407
 2fa:	8b00                	.insn	2, 0x8b00
 2fc:	0002                	.insn	2, 0x0002
 2fe:	0200                	.insn	2, 0x0200
 300:	5a01                	.insn	2, 0x5a01
 302:	a309                	.insn	2, 0xa309
 304:	260aa503          	lw	a0,608(s5)
 308:	34a8                	.insn	2, 0x34a8
 30a:	00a8                	.insn	2, 0x00a8
 30c:	0102                	.insn	2, 0x0102
 30e:	0078025b          	.insn	4, 0x0078025b
 312:	0102                	.insn	2, 0x0102
 314:	095c                	.insn	2, 0x095c
 316:	0ba503a3          	sb	s10,167(a0)
 31a:	a826                	.insn	2, 0xa826
 31c:	a82d                	.insn	2, 0xa82d
 31e:	0000                	.insn	2, 0x
 320:	0300                	.insn	2, 0x0300
 322:	00cd                	.insn	2, 0x00cd
 324:	0000                	.insn	2, 0x
 326:	0001a017          	auipc	zero,0x1a
 32a:	1000                	.insn	2, 0x1000
 32c:	0000                	.insn	2, 0x
 32e:	0100                	.insn	2, 0x0100
 330:	8b9c                	.insn	2, 0x8b9c
 332:	0002                	.insn	2, 0x0002
 334:	0600                	.insn	2, 0x0600
 336:	15170063          	beq	a4,a7,476 <cleanup_stdio+0x72>
 33a:	0084                	.insn	2, 0x0084
 33c:	0000                	.insn	2, 0x
 33e:	0132                	.insn	2, 0x0132
 340:	0000                	.insn	2, 0x
 342:	b00a                	.insn	2, 0xb00a
 344:	0001                	.insn	2, 0x0001
 346:	ee00                	.insn	2, 0xee00
 348:	0001                	.insn	2, 0x0001
 34a:	0200                	.insn	2, 0x0200
 34c:	5a01                	.insn	2, 0x5a01
 34e:	a309                	.insn	2, 0xa309
 350:	260aa503          	lw	a0,608(s5)
 354:	34a8                	.insn	2, 0x34a8
 356:	00a8                	.insn	2, 0x00a8
 358:	0102                	.insn	2, 0x0102
 35a:	ff0c055b          	.insn	4, 0xff0c055b
 35e:	ffff                	.insn	2, 0xffff
 360:	0000                	.insn	2, 0x
 362:	0300                	.insn	2, 0x0300
 364:	0152                	.insn	2, 0x0152
 366:	0000                	.insn	2, 0x
 368:	3c06                	.insn	2, 0x3c06
 36a:	0001                	.insn	2, 0x0001
 36c:	2000                	.insn	2, 0x2000
 36e:	0000                	.insn	2, 0x
 370:	0100                	.insn	2, 0x0100
 372:	db9c                	.insn	2, 0xdb9c
 374:	0002                	.insn	2, 0x0002
 376:	0c00                	.insn	2, 0x0c00
 378:	84180063          	beq	a6,ra,fffff3b8 <_end+0xffffc60c>
 37c:	0000                	.insn	2, 0x
 37e:	0100                	.insn	2, 0x0100
 380:	0c5a                	.insn	2, 0x0c5a
 382:	6f70                	.insn	2, 0x6f70
 384:	3b1f0073          	.insn	4, 0x3b1f0073
 388:	0000                	.insn	2, 0x
 38a:	0100                	.insn	2, 0x0100
 38c:	0011195b          	.insn	4, 0x0011195b
 390:	0000                	.insn	2, 0x
 392:	0601                	.insn	2, 0x0601
 394:	3b28                	.insn	2, 0x3b28
 396:	0000                	.insn	2, 0x
 398:	0100                	.insn	2, 0x0100
 39a:	1a5c                	.insn	2, 0x1a5c
 39c:	010a                	.insn	2, 0x010a
 39e:	0000                	.insn	2, 0x
 3a0:	0801                	.insn	2, 0x0801
 3a2:	00003b07          	.insn	4, 0x3b07
 3a6:	0a00                	.insn	2, 0x0a00
 3a8:	0aa503a3          	sb	a0,167(a0)
 3ac:	a826                	.insn	2, 0xa826
 3ae:	a82d                	.insn	2, 0xa82d
 3b0:	9f00                	.insn	2, 0x9f00
 3b2:	0d00                	.insn	2, 0x0d00
 3b4:	00ee                	.insn	2, 0x00ee
 3b6:	0000                	.insn	2, 0x
 3b8:	00ee                	.insn	2, 0x00ee
 3ba:	0000                	.insn	2, 0x
 3bc:	750d                	.insn	2, 0x750d
 3be:	0001                	.insn	2, 0x0001
 3c0:	7500                	.insn	2, 0x7500
 3c2:	0001                	.insn	2, 0x0001
 3c4:	0000                	.insn	2, 0x
 3c6:	0000005b          	.insn	4, 0x005b
 3ca:	0005                	.insn	2, 0x0005
 3cc:	0401                	.insn	2, 0x0401
 3ce:	0000025b          	.insn	4, 0x025b
 3d2:	c001                	.insn	2, 0xc001
 3d4:	f0000003          	lb	zero,-256(zero) # ffffff00 <_end+0xffffd154>
 3d8:	0002                	.insn	2, 0x0002
 3da:	b400                	.insn	2, 0xb400
 3dc:	7e01                	.insn	2, 0x7e01
 3de:	0001                	.insn	2, 0x0001
 3e0:	ad00                	.insn	2, 0xad00
 3e2:	0001                	.insn	2, 0x0001
 3e4:	2300                	.insn	2, 0x2300
 3e6:	0002                	.insn	2, 0x0002
 3e8:	0100                	.insn	2, 0x0100
 3ea:	0280                	.insn	2, 0x0280
 3ec:	0175                	.insn	2, 0x0175
 3ee:	0000                	.insn	2, 0x
 3f0:	f05d                	.insn	2, 0xf05d
 3f2:	0002                	.insn	2, 0x0002
 3f4:	8400                	.insn	2, 0x8400
 3f6:	0201                	.insn	2, 0x0201
 3f8:	023a                	.insn	2, 0x023a
 3fa:	0000                	.insn	2, 0x
 3fc:	f85d                	.insn	2, 0xf85d
 3fe:	0002                	.insn	2, 0x0002
 400:	4800                	.insn	2, 0x4800
 402:	3102                	.insn	2, 0x3102
 404:	0002                	.insn	2, 0x0002
 406:	5d00                	.insn	2, 0x5d00
 408:	02f8                	.insn	2, 0x02f8
 40a:	0000                	.insn	2, 0x
 40c:	0248                	.insn	2, 0x0248
 40e:	0244                	.insn	2, 0x0244
 410:	0000                	.insn	2, 0x
 412:	405d                	.insn	2, 0x405d
 414:	10000003          	lb	zero,256(zero) # 100 <main+0x14>
 418:	ee02                	.insn	2, 0xee02
 41a:	0000                	.insn	2, 0x
 41c:	5d00                	.insn	2, 0x5d00
 41e:	0374                	.insn	2, 0x0374
 420:	0000                	.insn	2, 0x
 422:	0330                	.insn	2, 0x0330
	...

Disassembly of section .debug_abbrev:

00000000 <.debug_abbrev>:
   0:	0501                	.insn	2, 0x0501
   2:	4900                	.insn	2, 0x4900
   4:	02000013          	li	zero,32
   8:	0049                	.insn	2, 0x0049
   a:	1802                	.insn	2, 0x1802
   c:	187e                	.insn	2, 0x187e
   e:	0000                	.insn	2, 0x
  10:	25011103          	lh	sp,592(sp)
  14:	130e                	.insn	2, 0x130e
  16:	1b1f030b          	.insn	4, 0x1b1f030b
  1a:	551f 1117 1001      	.insn	6, 0x10011117551f
  20:	04000017          	auipc	zero,0x4000
  24:	012e                	.insn	2, 0x012e
  26:	0e03193f 0b3b0b3a 	.insn	8, 0x0b3b0b3a0e03193f
  2e:	0b39                	.insn	2, 0x0b39
  30:	193c                	.insn	2, 0x193c
  32:	1301                	.insn	2, 0x1301
  34:	0000                	.insn	2, 0x
  36:	1805                	.insn	2, 0x1805
  38:	0000                	.insn	2, 0x
  3a:	0600                	.insn	2, 0x0600
  3c:	012e                	.insn	2, 0x012e
  3e:	0e03193f 0b3b0b3a 	.insn	8, 0x0b3b0b3a0e03193f
  46:	0b39                	.insn	2, 0x0b39
  48:	193c1927          	.insn	4, 0x193c1927
  4c:	1301                	.insn	2, 0x1301
  4e:	0000                	.insn	2, 0x
  50:	0b000f07          	.insn	4, 0x0b000f07
  54:	0013490b          	.insn	4, 0x0013490b
  58:	0800                	.insn	2, 0x0800
  5a:	0024                	.insn	2, 0x0024
  5c:	0b3e0b0b          	.insn	4, 0x0b3e0b0b
  60:	00000e03          	lb	t3,0(zero) # 0 <_start>
  64:	2409                	.insn	2, 0x2409
  66:	0b00                	.insn	2, 0x0b00
  68:	030b3e0b          	.insn	4, 0x030b3e0b
  6c:	0008                	.insn	2, 0x0008
  6e:	0a00                	.insn	2, 0x0a00
  70:	012e                	.insn	2, 0x012e
  72:	0e03193f 0b3b0b3a 	.insn	8, 0x0b3b0b3a0e03193f
  7a:	0b39                	.insn	2, 0x0b39
  7c:	1349                	.insn	2, 0x1349
  7e:	0111                	.insn	2, 0x0111
  80:	0612                	.insn	2, 0x0612
  82:	1840                	.insn	2, 0x1840
  84:	197a                	.insn	2, 0x197a
  86:	0000                	.insn	2, 0x
  88:	0300340b          	.insn	4, 0x0300340b
  8c:	3a0e                	.insn	2, 0x3a0e
  8e:	390b3b0b          	.insn	4, 0x390b3b0b
  92:	0213490b          	.insn	4, 0x0213490b
  96:	0c000017          	auipc	zero,0xc000
  9a:	0034                	.insn	2, 0x0034
  9c:	0b3a0e03          	lb	t3,179(s4)
  a0:	0b390b3b          	.insn	4, 0x0b390b3b
  a4:	1349                	.insn	2, 0x1349
  a6:	1802                	.insn	2, 0x1802
  a8:	0000                	.insn	2, 0x
  aa:	0b0d                	.insn	2, 0x0b0d
  ac:	5501                	.insn	2, 0x5501
  ae:	00130117          	auipc	sp,0x130
  b2:	0e00                	.insn	2, 0x0e00
  b4:	0034                	.insn	2, 0x0034
  b6:	0b3a0803          	lb	a6,179(s4)
  ba:	0b390b3b          	.insn	4, 0x0b390b3b
  be:	1349                	.insn	2, 0x1349
  c0:	1702                	.insn	2, 0x1702
  c2:	0000                	.insn	2, 0x
  c4:	7d01480f          	.insn	4, 0x7d01480f
  c8:	7f01                	.insn	2, 0x7f01
  ca:	00130113          	addi	sp,t1,1
  ce:	1000                	.insn	2, 0x1000
  d0:	0048                	.insn	2, 0x0048
  d2:	017d                	.insn	2, 0x017d
  d4:	0000137f 00240100 	.insn	12, 0x0b3e0b0b002401000000137f
  dc:	0b3e0b0b 
  e0:	00000e03          	lb	t3,0(zero) # 0 <_start>
  e4:	4902                	.insn	2, 0x4902
  e6:	0200                	.insn	2, 0x0200
  e8:	7e18                	.insn	2, 0x7e18
  ea:	0018                	.insn	2, 0x0018
  ec:	0300                	.insn	2, 0x0300
  ee:	012e                	.insn	2, 0x012e
  f0:	0e03193f 3b01213a 	.insn	8, 0x3b01213a0e03193f
  f8:	0621390b          	.insn	4, 0x0621390b
  fc:	01111927          	.insn	4, 0x01111927
 100:	0612                	.insn	2, 0x0612
 102:	1840                	.insn	2, 0x1840
 104:	197a                	.insn	2, 0x197a
 106:	1301                	.insn	2, 0x1301
 108:	0000                	.insn	2, 0x
 10a:	0504                	.insn	2, 0x0504
 10c:	0300                	.insn	2, 0x0300
 10e:	3a0e                	.insn	2, 0x3a0e
 110:	0121                	.insn	2, 0x0121
 112:	0b390b3b          	.insn	4, 0x0b390b3b
 116:	1349                	.insn	2, 0x1349
 118:	1702                	.insn	2, 0x1702
 11a:	0000                	.insn	2, 0x
 11c:	4805                	.insn	2, 0x4805
 11e:	7d00                	.insn	2, 0x7d00
 120:	7f01                	.insn	2, 0x7f01
 122:	06000013          	li	zero,96
 126:	0005                	.insn	2, 0x0005
 128:	213a0803          	lb	a6,531(s4)
 12c:	3b01                	.insn	2, 0x3b01
 12e:	490b390b          	.insn	4, 0x490b390b
 132:	00170213          	addi	tp,a4,1
 136:	0700                	.insn	2, 0x0700
 138:	0148                	.insn	2, 0x0148
 13a:	017d                	.insn	2, 0x017d
 13c:	0000137f 0b000f08 	.insn	12, 0x134904210b000f080000137f
 144:	13490421 
 148:	0000                	.insn	2, 0x
 14a:	4809                	.insn	2, 0x4809
 14c:	7d01                	.insn	2, 0x7d01
 14e:	7f01                	.insn	2, 0x7f01
 150:	00130113          	addi	sp,t1,1
 154:	0a00                	.insn	2, 0x0a00
 156:	0148                	.insn	2, 0x0148
 158:	017d                	.insn	2, 0x017d
 15a:	0182                	.insn	2, 0x0182
 15c:	7f19                	.insn	2, 0x7f19
 15e:	0b000013          	li	zero,176
 162:	0034                	.insn	2, 0x0034
 164:	213a0803          	lb	a6,531(s4)
 168:	3b01                	.insn	2, 0x3b01
 16a:	490b390b          	.insn	4, 0x490b390b
 16e:	00170213          	addi	tp,a4,1
 172:	0c00                	.insn	2, 0x0c00
 174:	0005                	.insn	2, 0x0005
 176:	213a0803          	lb	a6,531(s4)
 17a:	3b01                	.insn	2, 0x3b01
 17c:	0621                	.insn	2, 0x0621
 17e:	0b39                	.insn	2, 0x0b39
 180:	1349                	.insn	2, 0x1349
 182:	1802                	.insn	2, 0x1802
 184:	0000                	.insn	2, 0x
 186:	2e0d                	.insn	2, 0x2e0d
 188:	3f00                	.insn	2, 0x3f00
 18a:	3c19                	.insn	2, 0x3c19
 18c:	6e19                	.insn	2, 0x6e19
 18e:	030e                	.insn	2, 0x030e
 190:	000e                	.insn	2, 0x000e
 192:	0e00                	.insn	2, 0x0e00
 194:	0111                	.insn	2, 0x0111
 196:	0e25                	.insn	2, 0x0e25
 198:	1f030b13          	addi	s6,t1,496
 19c:	17551f1b          	.insn	4, 0x17551f1b
 1a0:	0111                	.insn	2, 0x0111
 1a2:	1710                	.insn	2, 0x1710
 1a4:	0000                	.insn	2, 0x
 1a6:	0b00240f          	.insn	4, 0x0b00240f
 1aa:	030b3e0b          	.insn	4, 0x030b3e0b
 1ae:	0008                	.insn	2, 0x0008
 1b0:	1000                	.insn	2, 0x1000
 1b2:	0016                	.insn	2, 0x0016
 1b4:	0b3a0e03          	lb	t3,179(s4)
 1b8:	0b390b3b          	.insn	4, 0x0b390b3b
 1bc:	1349                	.insn	2, 0x1349
 1be:	0000                	.insn	2, 0x
 1c0:	2611                	.insn	2, 0x2611
 1c2:	4900                	.insn	2, 0x4900
 1c4:	12000013          	li	zero,288
 1c8:	0034                	.insn	2, 0x0034
 1ca:	0b3a0e03          	lb	t3,179(s4)
 1ce:	0b390b3b          	.insn	4, 0x0b390b3b
 1d2:	1349                	.insn	2, 0x1349
 1d4:	1802193f 2e130000 	.insn	8, 0x2e1300001802193f
 1dc:	3f01                	.insn	2, 0x3f01
 1de:	0319                	.insn	2, 0x0319
 1e0:	3a0e                	.insn	2, 0x3a0e
 1e2:	390b3b0b          	.insn	4, 0x390b3b0b
 1e6:	4919270b          	.insn	4, 0x4919270b
 1ea:	01193c13          	sltiu	s8,s2,17
 1ee:	14000013          	li	zero,320
 1f2:	0005                	.insn	2, 0x0005
 1f4:	1349                	.insn	2, 0x1349
 1f6:	0000                	.insn	2, 0x
 1f8:	2e15                	.insn	2, 0x2e15
 1fa:	3f00                	.insn	2, 0x3f00
 1fc:	0319                	.insn	2, 0x0319
 1fe:	3a0e                	.insn	2, 0x3a0e
 200:	390b3b0b          	.insn	4, 0x390b3b0b
 204:	1201110b          	.insn	4, 0x1201110b
 208:	4006                	.insn	2, 0x4006
 20a:	7a18                	.insn	2, 0x7a18
 20c:	0019                	.insn	2, 0x0019
 20e:	1600                	.insn	2, 0x1600
 210:	012e                	.insn	2, 0x012e
 212:	0e03193f 0b3b0b3a 	.insn	8, 0x0b3b0b3a0e03193f
 21a:	0b39                	.insn	2, 0x0b39
 21c:	0111                	.insn	2, 0x0111
 21e:	0612                	.insn	2, 0x0612
 220:	1840                	.insn	2, 0x1840
 222:	197a                	.insn	2, 0x197a
 224:	1301                	.insn	2, 0x1301
 226:	0000                	.insn	2, 0x
 228:	55010b17          	auipc	s6,0x55010
 22c:	18000017          	auipc	zero,0x18000
 230:	1755010b          	.insn	4, 0x1755010b
 234:	1301                	.insn	2, 0x1301
 236:	0000                	.insn	2, 0x
 238:	0519                	.insn	2, 0x0519
 23a:	0300                	.insn	2, 0x0300
 23c:	3a0e                	.insn	2, 0x3a0e
 23e:	390b3b0b          	.insn	4, 0x390b3b0b
 242:	0213490b          	.insn	4, 0x0213490b
 246:	0018                	.insn	2, 0x0018
 248:	1a00                	.insn	2, 0x1a00
 24a:	0034                	.insn	2, 0x0034
 24c:	0b3a0e03          	lb	t3,179(s4)
 250:	0b390b3b          	.insn	4, 0x0b390b3b
 254:	1349                	.insn	2, 0x1349
 256:	1802                	.insn	2, 0x1802
 258:	0000                	.insn	2, 0x
 25a:	0100                	.insn	2, 0x0100
 25c:	0111                	.insn	2, 0x0111
 25e:	1710                	.insn	2, 0x1710
 260:	0111                	.insn	2, 0x0111
 262:	0f12                	.insn	2, 0x0f12
 264:	0e1b0e03          	lb	t3,225(s6) # 55010309 <_end+0x5500d55d>
 268:	0e25                	.insn	2, 0x0e25
 26a:	00000513          	li	a0,0
 26e:	2e02                	.insn	2, 0x2e02
 270:	0300                	.insn	2, 0x0300
 272:	3f0e                	.insn	2, 0x3f0e
 274:	4919                	.insn	2, 0x4919
 276:	1115                	.insn	2, 0x1115
 278:	1201                	.insn	2, 0x1201
 27a:	0300000f          	fence	rw,unknown
 27e:	0000003b          	.insn	4, 0x003b
	...

Disassembly of section .debug_loclists:

00000000 <.debug_loclists>:
   0:	003d                	.insn	2, 0x003d
   2:	0000                	.insn	2, 0x
   4:	0005                	.insn	2, 0x0005
   6:	0004                	.insn	2, 0x0004
   8:	0000                	.insn	2, 0x
   a:	0000                	.insn	2, 0x
   c:	ec06                	.insn	2, 0xec06
   e:	0000                	.insn	2, 0x
  10:	0400                	.insn	2, 0x0400
  12:	2000                	.insn	2, 0x2000
  14:	3002                	.insn	2, 0x3002
  16:	049f 4020 5801      	.insn	6, 0x58014020049f
  1c:	0600                	.insn	2, 0x0600
  1e:	0124                	.insn	2, 0x0124
  20:	0000                	.insn	2, 0x
  22:	0004                	.insn	2, 0x0004
  24:	0208                	.insn	2, 0x0208
  26:	9f30                	.insn	2, 0x9f30
  28:	0804                	.insn	2, 0x0804
  2a:	070c                	.insn	2, 0x070c
  2c:	4440                	.insn	2, 0x4440
  2e:	7f24                	.insn	2, 0x7f24
  30:	1c00                	.insn	2, 0x1c00
  32:	049f 180c 0c09      	.insn	6, 0x0c09180c049f
  38:	ffff                	.insn	2, 0xffff
  3a:	00ff 007f 9f1c 0600 	.insn	10, 0x000106009f1c007f00ff
  42:	0001 
  44:	0500                	.insn	2, 0x0500
  46:	0400                	.insn	2, 0x0400
  48:	0000                	.insn	2, 0x
  4a:	0000                	.insn	2, 0x
  4c:	0600                	.insn	2, 0x0600
  4e:	0214                	.insn	2, 0x0214
  50:	0000                	.insn	2, 0x
  52:	0004                	.insn	2, 0x0004
  54:	0120                	.insn	2, 0x0120
  56:	045a                	.insn	2, 0x045a
  58:	6820                	.insn	2, 0x6820
  5a:	5801                	.insn	2, 0x5801
  5c:	0600                	.insn	2, 0x0600
  5e:	0214                	.insn	2, 0x0214
  60:	0000                	.insn	2, 0x
  62:	0004                	.insn	2, 0x0004
  64:	045b0127          	.insn	4, 0x045b0127
  68:	59017427          	.insn	4, 0x59017427
  6c:	7404                	.insn	2, 0x7404
  6e:	5b010187          	.insn	4, 0x5b010187
  72:	8704                	.insn	2, 0x8704
  74:	8801                	.insn	2, 0x8801
  76:	0a01                	.insn	2, 0x0a01
  78:	0ba503a3          	sb	s10,167(a0)
  7c:	a826                	.insn	2, 0xa826
  7e:	a82d                	.insn	2, 0xa82d
  80:	9f00                	.insn	2, 0x9f00
  82:	0600                	.insn	2, 0x0600
  84:	01b0                	.insn	2, 0x01b0
  86:	0000                	.insn	2, 0x
  88:	0004                	.insn	2, 0x0004
  8a:	0120                	.insn	2, 0x0120
  8c:	045a                	.insn	2, 0x045a
  8e:	3c20                	.insn	2, 0x3c20
  90:	5901                	.insn	2, 0x5901
  92:	3c04                	.insn	2, 0x3c04
  94:	0a48                	.insn	2, 0x0a48
  96:	0aa503a3          	sb	a0,167(a0)
  9a:	a826                	.insn	2, 0xa826
  9c:	a82d                	.insn	2, 0xa82d
  9e:	9f00                	.insn	2, 0x9f00
  a0:	4804                	.insn	2, 0x4804
  a2:	0164                	.insn	2, 0x0164
  a4:	0059                	.insn	2, 0x0059
  a6:	b006                	.insn	2, 0xb006
  a8:	0001                	.insn	2, 0x0001
  aa:	0400                	.insn	2, 0x0400
  ac:	2000                	.insn	2, 0x2000
  ae:	5b01                	.insn	2, 0x5b01
  b0:	2004                	.insn	2, 0x2004
  b2:	0140                	.insn	2, 0x0140
  b4:	0462                	.insn	2, 0x0462
  b6:	4840                	.insn	2, 0x4840
  b8:	a30a                	.insn	2, 0xa30a
  ba:	260ba503          	lw	a0,608(s7)
  be:	2da8                	.insn	2, 0x2da8
  c0:	00a8                	.insn	2, 0x00a8
  c2:	049f 6448 6201      	.insn	6, 0x62016448049f
  c8:	0600                	.insn	2, 0x0600
  ca:	01b0                	.insn	2, 0x01b0
  cc:	0000                	.insn	2, 0x
  ce:	0004                	.insn	2, 0x0004
  d0:	0220                	.insn	2, 0x0220
  d2:	9f30                	.insn	2, 0x9f30
  d4:	2004                	.insn	2, 0x2004
  d6:	0138                	.insn	2, 0x0138
  d8:	0458                	.insn	2, 0x0458
  da:	5848                	.insn	2, 0x5848
  dc:	5801                	.insn	2, 0x5801
  de:	5804                	.insn	2, 0x5804
  e0:	0364                	.insn	2, 0x0364
  e2:	7f78                	.insn	2, 0x7f78
  e4:	009f f806 0001      	.insn	6, 0x0001f806009f
  ea:	0400                	.insn	2, 0x0400
  ec:	0400                	.insn	2, 0x0400
  ee:	7905                	.insn	2, 0x7905
  f0:	7800                	.insn	2, 0x7800
  f2:	2200                	.insn	2, 0x2200
  f4:	0404                	.insn	2, 0x0404
  f6:	007f0217          	auipc	tp,0x7f0
  fa:	0600                	.insn	2, 0x0600
  fc:	015c                	.insn	2, 0x015c
  fe:	0000                	.insn	2, 0x
 100:	0004                	.insn	2, 0x0004
 102:	045a0127          	.insn	4, 0x045a0127
 106:	a30a4427          	.insn	4, 0xa30a4427
 10a:	260aa503          	lw	a0,608(s5)
 10e:	34a8                	.insn	2, 0x34a8
 110:	00a8                	.insn	2, 0x00a8
 112:	009f 5c06 0001      	.insn	6, 0x00015c06009f
 118:	0400                	.insn	2, 0x0400
 11a:	2000                	.insn	2, 0x2000
 11c:	5b01                	.insn	2, 0x5b01
 11e:	2004                	.insn	2, 0x2004
 120:	045c0127          	.insn	4, 0x045c0127
 124:	a30a4427          	.insn	4, 0xa30a4427
 128:	260ba503          	lw	a0,608(s7)
 12c:	2da8                	.insn	2, 0x2da8
 12e:	00a8                	.insn	2, 0x00a8
 130:	009f a006 0001      	.insn	6, 0x0001a006009f
 136:	0400                	.insn	2, 0x0400
 138:	0f00                	.insn	2, 0x0f00
 13a:	5a01                	.insn	2, 0x5a01
 13c:	0f04                	.insn	2, 0x0f04
 13e:	0a10                	.insn	2, 0x0a10
 140:	0aa503a3          	sb	a0,167(a0)
 144:	a826                	.insn	2, 0xa826
 146:	a834                	.insn	2, 0xa834
 148:	9f00                	.insn	2, 0x9f00
	...

Disassembly of section .debug_aranges:

00000000 <.debug_aranges>:
   0:	001c                	.insn	2, 0x001c
   2:	0000                	.insn	2, 0x
   4:	0002                	.insn	2, 0x0002
   6:	0000                	.insn	2, 0x
   8:	0000                	.insn	2, 0x
   a:	0004                	.insn	2, 0x0004
   c:	0000                	.insn	2, 0x
   e:	0000                	.insn	2, 0x
  10:	00ec                	.insn	2, 0x00ec
  12:	0000                	.insn	2, 0x
  14:	0050                	.insn	2, 0x0050
	...
  1e:	0000                	.insn	2, 0x
  20:	004c                	.insn	2, 0x004c
  22:	0000                	.insn	2, 0x
  24:	0002                	.insn	2, 0x0002
  26:	00d8                	.insn	2, 0x00d8
  28:	0000                	.insn	2, 0x
  2a:	0004                	.insn	2, 0x0004
  2c:	0000                	.insn	2, 0x
  2e:	0000                	.insn	2, 0x
  30:	013c                	.insn	2, 0x013c
  32:	0000                	.insn	2, 0x
  34:	0020                	.insn	2, 0x0020
  36:	0000                	.insn	2, 0x
  38:	015c                	.insn	2, 0x015c
  3a:	0000                	.insn	2, 0x
  3c:	0044                	.insn	2, 0x0044
  3e:	0000                	.insn	2, 0x
  40:	01a0                	.insn	2, 0x01a0
  42:	0000                	.insn	2, 0x
  44:	0010                	.insn	2, 0x0010
  46:	0000                	.insn	2, 0x
  48:	01b0                	.insn	2, 0x01b0
  4a:	0000                	.insn	2, 0x
  4c:	0064                	.insn	2, 0x0064
  4e:	0000                	.insn	2, 0x
  50:	0214                	.insn	2, 0x0214
  52:	0000                	.insn	2, 0x
  54:	0088                	.insn	2, 0x0088
  56:	0000                	.insn	2, 0x
  58:	029c                	.insn	2, 0x029c
  5a:	0000                	.insn	2, 0x
  5c:	0048                	.insn	2, 0x0048
  5e:	0000                	.insn	2, 0x
  60:	02e4                	.insn	2, 0x02e4
  62:	0000                	.insn	2, 0x
  64:	000c                	.insn	2, 0x000c
	...
  6e:	0000                	.insn	2, 0x
  70:	001c                	.insn	2, 0x001c
  72:	0000                	.insn	2, 0x
  74:	0002                	.insn	2, 0x0002
  76:	03c6                	.insn	2, 0x03c6
  78:	0000                	.insn	2, 0x
  7a:	0004                	.insn	2, 0x0004
  7c:	0000                	.insn	2, 0x
  7e:	0000                	.insn	2, 0x
  80:	02f0                	.insn	2, 0x02f0
  82:	0000                	.insn	2, 0x
  84:	00b4                	.insn	2, 0x00b4
	...

Disassembly of section .debug_rnglists:

00000000 <.debug_rnglists>:
   0:	0000001b          	.insn	4, 0x001b
   4:	0005                	.insn	2, 0x0005
   6:	0004                	.insn	2, 0x0004
   8:	0000                	.insn	2, 0x
   a:	0000                	.insn	2, 0x
   c:	2405                	.insn	2, 0x2405
   e:	0001                	.insn	2, 0x0001
  10:	0400                	.insn	2, 0x0400
  12:	0000                	.insn	2, 0x
  14:	0804                	.insn	2, 0x0804
  16:	0018                	.insn	2, 0x0018
  18:	0000ec07          	.insn	4, 0xec07
  1c:	5000                	.insn	2, 0x5000
  1e:	4f00                	.insn	2, 0x4f00
  20:	0000                	.insn	2, 0x
  22:	0500                	.insn	2, 0x0500
  24:	0400                	.insn	2, 0x0400
  26:	0000                	.insn	2, 0x
  28:	0000                	.insn	2, 0x
  2a:	0500                	.insn	2, 0x0500
  2c:	01b0                	.insn	2, 0x01b0
  2e:	0000                	.insn	2, 0x
  30:	0004                	.insn	2, 0x0004
  32:	0400                	.insn	2, 0x0400
  34:	301c                	.insn	2, 0x301c
  36:	4804                	.insn	2, 0x4804
  38:	0064                	.insn	2, 0x0064
  3a:	f805                	.insn	2, 0xf805
  3c:	0001                	.insn	2, 0x0001
  3e:	0400                	.insn	2, 0x0400
  40:	0c00                	.insn	2, 0x0c00
  42:	1004                	.insn	2, 0x1004
  44:	0018                	.insn	2, 0x0018
  46:	00013c07          	.insn	4, 0x00013c07
  4a:	2000                	.insn	2, 0x2000
  4c:	00015c07          	.insn	4, 0x00015c07
  50:	4400                	.insn	2, 0x4400
  52:	0001a007          	.insn	4, 0x0001a007
  56:	1000                	.insn	2, 0x1000
  58:	0001b007          	.insn	4, 0x0001b007
  5c:	6400                	.insn	2, 0x6400
  5e:	00021407          	.insn	4, 0x00021407
  62:	8800                	.insn	2, 0x8800
  64:	0701                	.insn	2, 0x0701
  66:	029c                	.insn	2, 0x029c
  68:	0000                	.insn	2, 0x
  6a:	0748                	.insn	2, 0x0748
  6c:	02e4                	.insn	2, 0x02e4
  6e:	0000                	.insn	2, 0x
  70:	000c                	.insn	2, 0x000c

Disassembly of section .debug_line:

00000000 <.debug_line>:
   0:	00cd                	.insn	2, 0x00cd
   2:	0000                	.insn	2, 0x
   4:	0005                	.insn	2, 0x0005
   6:	0004                	.insn	2, 0x0004
   8:	0000002f          	.insn	4, 0x002f
   c:	0101                	.insn	2, 0x0101
   e:	fb01                	.insn	2, 0xfb01
  10:	0d0e                	.insn	2, 0x0d0e
  12:	0100                	.insn	2, 0x0100
  14:	0101                	.insn	2, 0x0101
  16:	0001                	.insn	2, 0x0001
  18:	0000                	.insn	2, 0x
  1a:	0001                	.insn	2, 0x0001
  1c:	0100                	.insn	2, 0x0100
  1e:	0101                	.insn	2, 0x0101
  20:	011f 000b 0000      	.insn	6, 0x000b011f
  26:	0102                	.insn	2, 0x0102
  28:	021f 030f 0000      	.insn	6, 0x030f021f
	...
  36:	0042                	.insn	2, 0x0042
  38:	0000                	.insn	2, 0x
  3a:	0500                	.insn	2, 0x0500
  3c:	0001                	.insn	2, 0x0001
  3e:	0205                	.insn	2, 0x0205
  40:	00ec                	.insn	2, 0x00ec
  42:	0000                	.insn	2, 0x
  44:	0515                	.insn	2, 0x0515
  46:	0305                	.insn	2, 0x0305
  48:	0901                	.insn	2, 0x0901
  4a:	0000                	.insn	2, 0x
  4c:	0301                	.insn	2, 0x0301
  4e:	0901                	.insn	2, 0x0901
  50:	0000                	.insn	2, 0x
  52:	0501                	.insn	2, 0x0501
  54:	0601                	.insn	2, 0x0601
  56:	00097e03          	.insn	4, 0x00097e03
  5a:	0100                	.insn	2, 0x0100
  5c:	0905                	.insn	2, 0x0905
  5e:	14090103          	lb	sp,320(s2)
  62:	0100                	.insn	2, 0x0100
  64:	04090403          	lb	s0,64(s2)
  68:	0100                	.insn	2, 0x0100
  6a:	04090103          	lb	sp,64(s2)
  6e:	0100                	.insn	2, 0x0100
  70:	0505                	.insn	2, 0x0505
  72:	0306                	.insn	2, 0x0306
  74:	097d                	.insn	2, 0x097d
  76:	0004                	.insn	2, 0x0004
  78:	0501                	.insn	2, 0x0501
  7a:	0309                	.insn	2, 0x0309
  7c:	0902                	.insn	2, 0x0902
  7e:	0000                	.insn	2, 0x
  80:	0301                	.insn	2, 0x0301
  82:	0901                	.insn	2, 0x0901
  84:	0010                	.insn	2, 0x0010
  86:	0301                	.insn	2, 0x0301
  88:	0901                	.insn	2, 0x0901
  8a:	0008                	.insn	2, 0x0008
  8c:	0501                	.insn	2, 0x0501
  8e:	030e                	.insn	2, 0x030e
  90:	0900                	.insn	2, 0x0900
  92:	0000                	.insn	2, 0x
  94:	0501                	.insn	2, 0x0501
  96:	0402001b          	.insn	4, 0x0402001b
  9a:	0301                	.insn	2, 0x0301
  9c:	0900                	.insn	2, 0x0900
  9e:	0000                	.insn	2, 0x
  a0:	0501                	.insn	2, 0x0501
  a2:	0609                	.insn	2, 0x0609
  a4:	00097f03          	.insn	4, 0x00097f03
  a8:	0100                	.insn	2, 0x0100
  aa:	0d05                	.insn	2, 0x0d05
  ac:	0306                	.insn	2, 0x0306
  ae:	00080903          	lb	s2,0(a6)
  b2:	0501                	.insn	2, 0x0501
  b4:	0028                	.insn	2, 0x0028
  b6:	0402                	.insn	2, 0x0402
  b8:	097e0303          	lb	t1,151(t3)
  bc:	0000                	.insn	2, 0x
  be:	0501                	.insn	2, 0x0501
  c0:	0402001b          	.insn	4, 0x0402001b
  c4:	0301                	.insn	2, 0x0301
  c6:	0900                	.insn	2, 0x0900
  c8:	0000                	.insn	2, 0x
  ca:	0901                	.insn	2, 0x0901
  cc:	0010                	.insn	2, 0x0010
  ce:	0100                	.insn	2, 0x0100
  d0:	eb01                	.insn	2, 0xeb01
  d2:	0002                	.insn	2, 0x0002
  d4:	0500                	.insn	2, 0x0500
  d6:	0400                	.insn	2, 0x0400
  d8:	3c00                	.insn	2, 0x3c00
  da:	0000                	.insn	2, 0x
  dc:	0100                	.insn	2, 0x0100
  de:	0101                	.insn	2, 0x0101
  e0:	000d0efb          	.insn	4, 0x000d0efb
  e4:	0101                	.insn	2, 0x0101
  e6:	0101                	.insn	2, 0x0101
  e8:	0000                	.insn	2, 0x
  ea:	0100                	.insn	2, 0x0100
  ec:	0000                	.insn	2, 0x
  ee:	0101                	.insn	2, 0x0101
  f0:	1f01                	.insn	2, 0x1f01
  f2:	00000b03          	lb	s6,0(zero) # 0 <_start>
  f6:	5200                	.insn	2, 0x5200
  f8:	0000                	.insn	2, 0x
  fa:	ab00                	.insn	2, 0xab00
  fc:	0000                	.insn	2, 0x
  fe:	0200                	.insn	2, 0x0200
 100:	1f01                	.insn	2, 0x1f01
 102:	0f02                	.insn	2, 0x0f02
 104:	4a04                	.insn	2, 0x4a04
 106:	0000                	.insn	2, 0x
 108:	0000                	.insn	2, 0x
 10a:	004a                	.insn	2, 0x004a
 10c:	0000                	.insn	2, 0x
 10e:	f500                	.insn	2, 0xf500
 110:	0000                	.insn	2, 0x
 112:	0100                	.insn	2, 0x0100
 114:	00fe                	.insn	2, 0x00fe
 116:	0000                	.insn	2, 0x
 118:	0502                	.insn	2, 0x0502
 11a:	0001                	.insn	2, 0x0001
 11c:	0205                	.insn	2, 0x0205
 11e:	013c                	.insn	2, 0x013c
 120:	0000                	.insn	2, 0x
 122:	0518                	.insn	2, 0x0518
 124:	09010303          	lb	t1,144(sp) # 13013e <_end+0x12d392>
 128:	0000                	.insn	2, 0x
 12a:	0301                	.insn	2, 0x0301
 12c:	0901                	.insn	2, 0x0901
 12e:	0000                	.insn	2, 0x
 130:	0501                	.insn	2, 0x0501
 132:	0601                	.insn	2, 0x0601
 134:	1c090a03          	lb	s4,448(s2)
 138:	0100                	.insn	2, 0x0100
 13a:	0409                	.insn	2, 0x0409
 13c:	0000                	.insn	2, 0x
 13e:	0101                	.insn	2, 0x0101
 140:	0105                	.insn	2, 0x0105
 142:	0500                	.insn	2, 0x0500
 144:	5c02                	.insn	2, 0x5c02
 146:	0001                	.insn	2, 0x0001
 148:	0300                	.insn	2, 0x0300
 14a:	011c                	.insn	2, 0x011c
 14c:	0305                	.insn	2, 0x0305
 14e:	00090103          	lb	sp,0(s2)
 152:	0100                	.insn	2, 0x0100
 154:	0105                	.insn	2, 0x0105
 156:	0306                	.insn	2, 0x0306
 158:	097f 0000 0501 0303 	.insn	10, 0x0901030305010000097f
 160:	0901 
 162:	0008                	.insn	2, 0x0008
 164:	0501                	.insn	2, 0x0501
 166:	0301                	.insn	2, 0x0301
 168:	097f 0004 0501 0303 	.insn	10, 0x0901030305010004097f
 170:	0901 
 172:	0004                	.insn	2, 0x0004
 174:	0501                	.insn	2, 0x0501
 176:	0301                	.insn	2, 0x0301
 178:	097f 0004 0501 0303 	.insn	10, 0x0901030305010004097f
 180:	0901 
 182:	0008                	.insn	2, 0x0008
 184:	0601                	.insn	2, 0x0601
 186:	0c090103          	lb	sp,192(s2)
 18a:	0100                	.insn	2, 0x0100
 18c:	0d05                	.insn	2, 0x0d05
 18e:	0306                	.insn	2, 0x0306
 190:	0900                	.insn	2, 0x0900
 192:	0000                	.insn	2, 0x
 194:	0501                	.insn	2, 0x0501
 196:	0301                	.insn	2, 0x0301
 198:	0901                	.insn	2, 0x0901
 19a:	0008                	.insn	2, 0x0008
 19c:	0901                	.insn	2, 0x0901
 19e:	0014                	.insn	2, 0x0014
 1a0:	0100                	.insn	2, 0x0100
 1a2:	0501                	.insn	2, 0x0501
 1a4:	0001                	.insn	2, 0x0001
 1a6:	0205                	.insn	2, 0x0205
 1a8:	01a0                	.insn	2, 0x01a0
 1aa:	0000                	.insn	2, 0x
 1ac:	05011703          	lh	a4,80(sp)
 1b0:	09010303          	lb	t1,144(sp)
 1b4:	0000                	.insn	2, 0x
 1b6:	0901                	.insn	2, 0x0901
 1b8:	0010                	.insn	2, 0x0010
 1ba:	0100                	.insn	2, 0x0100
 1bc:	0501                	.insn	2, 0x0501
 1be:	0001                	.insn	2, 0x0001
 1c0:	0205                	.insn	2, 0x0205
 1c2:	01b0                	.insn	2, 0x01b0
 1c4:	0000                	.insn	2, 0x
 1c6:	05012203          	lw	tp,80(sp)
 1ca:	09010303          	lb	t1,144(sp)
 1ce:	0000                	.insn	2, 0x
 1d0:	0501                	.insn	2, 0x0501
 1d2:	0308                	.insn	2, 0x0308
 1d4:	0900                	.insn	2, 0x0900
 1d6:	0000                	.insn	2, 0x
 1d8:	0501                	.insn	2, 0x0501
 1da:	0601                	.insn	2, 0x0601
 1dc:	00097f03          	.insn	4, 0x00097f03
 1e0:	0100                	.insn	2, 0x0100
 1e2:	14090003          	lb	zero,320(s2)
 1e6:	0100                	.insn	2, 0x0100
 1e8:	0c05                	.insn	2, 0x0c05
 1ea:	08090103          	lb	sp,128(s2)
 1ee:	0100                	.insn	2, 0x0100
 1f0:	1505                	.insn	2, 0x1505
 1f2:	0200                	.insn	2, 0x0200
 1f4:	0104                	.insn	2, 0x0104
 1f6:	0306                	.insn	2, 0x0306
 1f8:	0900                	.insn	2, 0x0900
 1fa:	0004                	.insn	2, 0x0004
 1fc:	0501                	.insn	2, 0x0501
 1fe:	04020017          	auipc	zero,0x4020
 202:	0601                	.insn	2, 0x0601
 204:	00090003          	lb	zero,0(s2)
 208:	0100                	.insn	2, 0x0100
 20a:	1505                	.insn	2, 0x1505
 20c:	0200                	.insn	2, 0x0200
 20e:	0104                	.insn	2, 0x0104
 210:	0c090003          	lb	zero,192(s2)
 214:	0100                	.insn	2, 0x0100
 216:	0105                	.insn	2, 0x0105
 218:	04090503          	lb	a0,64(s2)
 21c:	0100                	.insn	2, 0x0100
 21e:	0505                	.insn	2, 0x0505
 220:	0306                	.insn	2, 0x0306
 222:	097d                	.insn	2, 0x097d
 224:	0018                	.insn	2, 0x0018
 226:	0301                	.insn	2, 0x0301
 228:	0901                	.insn	2, 0x0901
 22a:	0000                	.insn	2, 0x
 22c:	0501                	.insn	2, 0x0501
 22e:	060a                	.insn	2, 0x060a
 230:	00097f03          	.insn	4, 0x00097f03
 234:	0100                	.insn	2, 0x0100
 236:	0505                	.insn	2, 0x0505
 238:	04090103          	lb	sp,64(s2)
 23c:	0100                	.insn	2, 0x0100
 23e:	2805                	.insn	2, 0x2805
 240:	0200                	.insn	2, 0x0200
 242:	0304                	.insn	2, 0x0304
 244:	08097d03          	.insn	4, 0x08097d03
 248:	0100                	.insn	2, 0x0100
 24a:	0505                	.insn	2, 0x0505
 24c:	04090303          	lb	t1,64(s2)
 250:	0100                	.insn	2, 0x0100
 252:	2805                	.insn	2, 0x2805
 254:	0200                	.insn	2, 0x0200
 256:	0304                	.insn	2, 0x0304
 258:	0306                	.insn	2, 0x0306
 25a:	097d                	.insn	2, 0x097d
 25c:	0008                	.insn	2, 0x0008
 25e:	0901                	.insn	2, 0x0901
 260:	0004                	.insn	2, 0x0004
 262:	0100                	.insn	2, 0x0100
 264:	0501                	.insn	2, 0x0501
 266:	0001                	.insn	2, 0x0001
 268:	0205                	.insn	2, 0x0205
 26a:	0214                	.insn	2, 0x0214
 26c:	0000                	.insn	2, 0x
 26e:	05012b03          	lw	s6,80(sp)
 272:	09010303          	lb	t1,144(sp)
 276:	0000                	.insn	2, 0x
 278:	0501                	.insn	2, 0x0501
 27a:	0601                	.insn	2, 0x0601
 27c:	00097f03          	.insn	4, 0x00097f03
 280:	0100                	.insn	2, 0x0100
 282:	10090003          	lb	zero,256(s2)
 286:	0100                	.insn	2, 0x0100
 288:	0605                	.insn	2, 0x0605
 28a:	08090103          	lb	sp,128(s2)
 28e:	0100                	.insn	2, 0x0100
 290:	0505                	.insn	2, 0x0505
 292:	0306                	.insn	2, 0x0306
 294:	0902                	.insn	2, 0x0902
 296:	0004                	.insn	2, 0x0004
 298:	0301                	.insn	2, 0x0301
 29a:	0901                	.insn	2, 0x0901
 29c:	000c                	.insn	2, 0x000c
 29e:	0501                	.insn	2, 0x0501
 2a0:	00030607          	.insn	4, 0x00030607
 2a4:	0009                	.insn	2, 0x0009
 2a6:	0100                	.insn	2, 0x0100
 2a8:	0305                	.insn	2, 0x0305
 2aa:	0306                	.insn	2, 0x0306
 2ac:	0902                	.insn	2, 0x0902
 2ae:	0004                	.insn	2, 0x0004
 2b0:	0501                	.insn	2, 0x0501
 2b2:	00030607          	.insn	4, 0x00030607
 2b6:	0009                	.insn	2, 0x0009
 2b8:	0100                	.insn	2, 0x0100
 2ba:	0605                	.insn	2, 0x0605
 2bc:	04090003          	lb	zero,64(s2)
 2c0:	0100                	.insn	2, 0x0100
 2c2:	0505                	.insn	2, 0x0505
 2c4:	0306                	.insn	2, 0x0306
 2c6:	0901                	.insn	2, 0x0901
 2c8:	0008                	.insn	2, 0x0008
 2ca:	0501                	.insn	2, 0x0501
 2cc:	09010303          	lb	t1,144(sp)
 2d0:	001c                	.insn	2, 0x001c
 2d2:	0501                	.insn	2, 0x0501
 2d4:	0614                	.insn	2, 0x0614
 2d6:	00090003          	lb	zero,0(s2)
 2da:	0100                	.insn	2, 0x0100
 2dc:	0105                	.insn	2, 0x0105
 2de:	10090103          	lb	sp,256(s2)
 2e2:	0100                	.insn	2, 0x0100
 2e4:	0305                	.insn	2, 0x0305
 2e6:	08097f03          	.insn	4, 0x08097f03
 2ea:	0100                	.insn	2, 0x0100
 2ec:	0105                	.insn	2, 0x0105
 2ee:	04090103          	lb	sp,64(s2)
 2f2:	0100                	.insn	2, 0x0100
 2f4:	0305                	.insn	2, 0x0305
 2f6:	04097f03          	.insn	4, 0x04097f03
 2fa:	0100                	.insn	2, 0x0100
 2fc:	0105                	.insn	2, 0x0105
 2fe:	04090103          	lb	sp,64(s2)
 302:	0100                	.insn	2, 0x0100
 304:	0305                	.insn	2, 0x0305
 306:	00097f03          	.insn	4, 0x00097f03
 30a:	0100                	.insn	2, 0x0100
 30c:	0105                	.insn	2, 0x0105
 30e:	04090103          	lb	sp,64(s2)
 312:	0100                	.insn	2, 0x0100
 314:	0305                	.insn	2, 0x0305
 316:	04097f03          	.insn	4, 0x04097f03
 31a:	0100                	.insn	2, 0x0100
 31c:	0809                	.insn	2, 0x0809
 31e:	0000                	.insn	2, 0x
 320:	0101                	.insn	2, 0x0101
 322:	0105                	.insn	2, 0x0105
 324:	0500                	.insn	2, 0x0500
 326:	9c02                	.insn	2, 0x9c02
 328:	0002                	.insn	2, 0x0002
 32a:	0300                	.insn	2, 0x0300
 32c:	03050137          	lui	sp,0x3050
 330:	00090203          	lb	tp,0(s2)
 334:	0100                	.insn	2, 0x0100
 336:	0105                	.insn	2, 0x0105
 338:	0306                	.insn	2, 0x0306
 33a:	097e                	.insn	2, 0x097e
 33c:	0000                	.insn	2, 0x
 33e:	0501                	.insn	2, 0x0501
 340:	030e                	.insn	2, 0x030e
 342:	0902                	.insn	2, 0x0902
 344:	0008                	.insn	2, 0x0008
 346:	0501                	.insn	2, 0x0501
 348:	0301                	.insn	2, 0x0301
 34a:	097e                	.insn	2, 0x097e
 34c:	0004                	.insn	2, 0x0004
 34e:	0501                	.insn	2, 0x0501
 350:	030e                	.insn	2, 0x030e
 352:	0902                	.insn	2, 0x0902
 354:	0004                	.insn	2, 0x0004
 356:	0501                	.insn	2, 0x0501
 358:	01030603          	lb	a2,16(t1)
 35c:	0409                	.insn	2, 0x0409
 35e:	0100                	.insn	2, 0x0100
 360:	1d05                	.insn	2, 0x1d05
 362:	0306                	.insn	2, 0x0306
 364:	097f 0000 0501 0301 	.insn	10, 0x097e030105010000097f
 36c:	097e 
 36e:	0004                	.insn	2, 0x0004
 370:	0501                	.insn	2, 0x0501
 372:	031d                	.insn	2, 0x031d
 374:	0902                	.insn	2, 0x0902
 376:	0004                	.insn	2, 0x0004
 378:	0501                	.insn	2, 0x0501
 37a:	030e                	.insn	2, 0x030e
 37c:	0900                	.insn	2, 0x0900
 37e:	000c                	.insn	2, 0x000c
 380:	0301                	.insn	2, 0x0301
 382:	0901                	.insn	2, 0x0901
 384:	0004                	.insn	2, 0x0004
 386:	0501                	.insn	2, 0x0501
 388:	0301                	.insn	2, 0x0301
 38a:	0901                	.insn	2, 0x0901
 38c:	0008                	.insn	2, 0x0008
 38e:	0901                	.insn	2, 0x0901
 390:	0014                	.insn	2, 0x0014
 392:	0100                	.insn	2, 0x0100
 394:	0501                	.insn	2, 0x0501
 396:	0001                	.insn	2, 0x0001
 398:	0205                	.insn	2, 0x0205
 39a:	02e4                	.insn	2, 0x02e4
 39c:	0000                	.insn	2, 0x
 39e:	05013e03          	.insn	4, 0x05013e03
 3a2:	09010303          	lb	t1,144(sp) # 3050090 <_end+0x304d2e4>
 3a6:	0000                	.insn	2, 0x
 3a8:	0501                	.insn	2, 0x0501
 3aa:	060e                	.insn	2, 0x060e
 3ac:	00090003          	lb	zero,0(s2)
 3b0:	0100                	.insn	2, 0x0100
 3b2:	0105                	.insn	2, 0x0105
 3b4:	08090103          	lb	sp,128(s2)
 3b8:	0100                	.insn	2, 0x0100
 3ba:	0409                	.insn	2, 0x0409
 3bc:	0000                	.insn	2, 0x
 3be:	0101                	.insn	2, 0x0101
 3c0:	0000014f          	.insn	4, 0x014f
 3c4:	0005                	.insn	2, 0x0005
 3c6:	0004                	.insn	2, 0x0004
 3c8:	002e                	.insn	2, 0x002e
 3ca:	0000                	.insn	2, 0x
 3cc:	0101                	.insn	2, 0x0101
 3ce:	fb01                	.insn	2, 0xfb01
 3d0:	0d0e                	.insn	2, 0x0d0e
 3d2:	0100                	.insn	2, 0x0100
 3d4:	0101                	.insn	2, 0x0101
 3d6:	0001                	.insn	2, 0x0001
 3d8:	0000                	.insn	2, 0x
 3da:	0001                	.insn	2, 0x0001
 3dc:	0100                	.insn	2, 0x0100
 3de:	0101                	.insn	2, 0x0101
 3e0:	021f 0107 0000      	.insn	6, 0x0107021f
 3e6:	017d                	.insn	2, 0x017d
 3e8:	0000                	.insn	2, 0x
 3ea:	0102                	.insn	2, 0x0102
 3ec:	021f 020f 01a6      	.insn	6, 0x01a6020f021f
 3f2:	0000                	.insn	2, 0x
 3f4:	a601                	.insn	2, 0xa601
 3f6:	0001                	.insn	2, 0x0001
 3f8:	0100                	.insn	2, 0x0100
 3fa:	0500                	.insn	2, 0x0500
 3fc:	f002                	.insn	2, 0xf002
 3fe:	0002                	.insn	2, 0x0002
 400:	0300                	.insn	2, 0x0300
 402:	00c4                	.insn	2, 0x00c4
 404:	0301                	.insn	2, 0x0301
 406:	0901                	.insn	2, 0x0901
 408:	0004                	.insn	2, 0x0004
 40a:	0301                	.insn	2, 0x0301
 40c:	0904                	.insn	2, 0x0904
 40e:	0004                	.insn	2, 0x0004
 410:	0301                	.insn	2, 0x0301
 412:	0901                	.insn	2, 0x0901
 414:	0004                	.insn	2, 0x0004
 416:	0301                	.insn	2, 0x0301
 418:	0901                	.insn	2, 0x0901
 41a:	0004                	.insn	2, 0x0004
 41c:	0301                	.insn	2, 0x0301
 41e:	0901                	.insn	2, 0x0901
 420:	0004                	.insn	2, 0x0004
 422:	0301                	.insn	2, 0x0301
 424:	0901                	.insn	2, 0x0901
 426:	0004                	.insn	2, 0x0004
 428:	0301                	.insn	2, 0x0301
 42a:	0901                	.insn	2, 0x0901
 42c:	0004                	.insn	2, 0x0004
 42e:	0301                	.insn	2, 0x0301
 430:	0902                	.insn	2, 0x0902
 432:	0004                	.insn	2, 0x0004
 434:	0301                	.insn	2, 0x0301
 436:	0901                	.insn	2, 0x0901
 438:	0004                	.insn	2, 0x0004
 43a:	0301                	.insn	2, 0x0301
 43c:	0901                	.insn	2, 0x0901
 43e:	0004                	.insn	2, 0x0004
 440:	0301                	.insn	2, 0x0301
 442:	0901                	.insn	2, 0x0901
 444:	0004                	.insn	2, 0x0004
 446:	0301                	.insn	2, 0x0301
 448:	0902                	.insn	2, 0x0902
 44a:	0004                	.insn	2, 0x0004
 44c:	0301                	.insn	2, 0x0301
 44e:	0902                	.insn	2, 0x0902
 450:	0004                	.insn	2, 0x0004
 452:	0301                	.insn	2, 0x0301
 454:	0901                	.insn	2, 0x0901
 456:	0004                	.insn	2, 0x0004
 458:	0301                	.insn	2, 0x0301
 45a:	0901                	.insn	2, 0x0901
 45c:	0004                	.insn	2, 0x0004
 45e:	0301                	.insn	2, 0x0301
 460:	0902                	.insn	2, 0x0902
 462:	0004                	.insn	2, 0x0004
 464:	0301                	.insn	2, 0x0301
 466:	0901                	.insn	2, 0x0901
 468:	0004                	.insn	2, 0x0004
 46a:	0301                	.insn	2, 0x0301
 46c:	0901                	.insn	2, 0x0901
 46e:	0004                	.insn	2, 0x0004
 470:	0301                	.insn	2, 0x0301
 472:	0902                	.insn	2, 0x0902
 474:	0004                	.insn	2, 0x0004
 476:	0301                	.insn	2, 0x0301
 478:	0906                	.insn	2, 0x0906
 47a:	0004                	.insn	2, 0x0004
 47c:	0301                	.insn	2, 0x0301
 47e:	0901                	.insn	2, 0x0901
 480:	0004                	.insn	2, 0x0004
 482:	0301                	.insn	2, 0x0301
 484:	0901                	.insn	2, 0x0901
 486:	0004                	.insn	2, 0x0004
 488:	0301                	.insn	2, 0x0301
 48a:	0901                	.insn	2, 0x0901
 48c:	0004                	.insn	2, 0x0004
 48e:	0301                	.insn	2, 0x0301
 490:	0905                	.insn	2, 0x0905
 492:	0004                	.insn	2, 0x0004
 494:	0301                	.insn	2, 0x0301
 496:	0902                	.insn	2, 0x0902
 498:	0004                	.insn	2, 0x0004
 49a:	0301                	.insn	2, 0x0301
 49c:	0902                	.insn	2, 0x0902
 49e:	0004                	.insn	2, 0x0004
 4a0:	0301                	.insn	2, 0x0301
 4a2:	0901                	.insn	2, 0x0901
 4a4:	0004                	.insn	2, 0x0004
 4a6:	0301                	.insn	2, 0x0301
 4a8:	0902                	.insn	2, 0x0902
 4aa:	0004                	.insn	2, 0x0004
 4ac:	0301                	.insn	2, 0x0301
 4ae:	0902                	.insn	2, 0x0902
 4b0:	0004                	.insn	2, 0x0004
 4b2:	0301                	.insn	2, 0x0301
 4b4:	0901                	.insn	2, 0x0901
 4b6:	0004                	.insn	2, 0x0004
 4b8:	0301                	.insn	2, 0x0301
 4ba:	0901                	.insn	2, 0x0901
 4bc:	0004                	.insn	2, 0x0004
 4be:	0301                	.insn	2, 0x0301
 4c0:	0901                	.insn	2, 0x0901
 4c2:	0004                	.insn	2, 0x0004
 4c4:	0301                	.insn	2, 0x0301
 4c6:	0904                	.insn	2, 0x0904
 4c8:	0004                	.insn	2, 0x0004
 4ca:	0301                	.insn	2, 0x0301
 4cc:	0901                	.insn	2, 0x0901
 4ce:	0004                	.insn	2, 0x0004
 4d0:	0301                	.insn	2, 0x0301
 4d2:	0901                	.insn	2, 0x0901
 4d4:	0004                	.insn	2, 0x0004
 4d6:	0301                	.insn	2, 0x0301
 4d8:	0902                	.insn	2, 0x0902
 4da:	0004                	.insn	2, 0x0004
 4dc:	0301                	.insn	2, 0x0301
 4de:	0901                	.insn	2, 0x0901
 4e0:	0004                	.insn	2, 0x0004
 4e2:	0301                	.insn	2, 0x0301
 4e4:	0901                	.insn	2, 0x0901
 4e6:	0004                	.insn	2, 0x0004
 4e8:	0301                	.insn	2, 0x0301
 4ea:	0902                	.insn	2, 0x0902
 4ec:	0004                	.insn	2, 0x0004
 4ee:	0301                	.insn	2, 0x0301
 4f0:	0901                	.insn	2, 0x0901
 4f2:	0004                	.insn	2, 0x0004
 4f4:	0301                	.insn	2, 0x0301
 4f6:	0902                	.insn	2, 0x0902
 4f8:	0004                	.insn	2, 0x0004
 4fa:	0301                	.insn	2, 0x0301
 4fc:	0901                	.insn	2, 0x0901
 4fe:	0004                	.insn	2, 0x0004
 500:	0301                	.insn	2, 0x0301
 502:	0901                	.insn	2, 0x0901
 504:	0004                	.insn	2, 0x0004
 506:	0301                	.insn	2, 0x0301
 508:	0901                	.insn	2, 0x0901
 50a:	0004                	.insn	2, 0x0004
 50c:	0901                	.insn	2, 0x0901
 50e:	0004                	.insn	2, 0x0004
 510:	0100                	.insn	2, 0x0100
 512:	Address 0x512 is out of bounds.


Disassembly of section .debug_str:

00000000 <.debug_str>:
   0:	7270                	.insn	2, 0x7270
   2:	6e69                	.insn	2, 0x6e69
   4:	5374                	.insn	2, 0x5374
   6:	7274                	.insn	2, 0x7274
   8:	6e69                	.insn	2, 0x6e69
   a:	616d0067          	jr	1558(s10)
   e:	6e69                	.insn	2, 0x6e69
  10:	6300                	.insn	2, 0x6300
  12:	726f6c6f          	jal	s8,f6738 <_end+0xf398c>
  16:	7300                	.insn	2, 0x7300
  18:	7274                	.insn	2, 0x7274
  1a:	6e69                	.insn	2, 0x6e69
  1c:	4e470067          	jr	1252(a4)
  20:	2055                	.insn	2, 0x2055
  22:	20373143          	.insn	4, 0x20373143
  26:	3431                	.insn	2, 0x3431
  28:	322e                	.insn	2, 0x322e
  2a:	302e                	.insn	2, 0x302e
  2c:	2d20                	.insn	2, 0x2d20
  2e:	6e6d                	.insn	2, 0x6e6d
  30:	69642d6f          	jal	s10,426c6 <_end+0x3f91a>
  34:	2076                	.insn	2, 0x2076
  36:	6d2d                	.insn	2, 0x6d2d
  38:	6261                	.insn	2, 0x6261
  3a:	3d69                	.insn	2, 0x3d69
  3c:	6c69                	.insn	2, 0x6c69
  3e:	3370                	.insn	2, 0x3370
  40:	2032                	.insn	2, 0x2032
  42:	6d2d                	.insn	2, 0x6d2d
  44:	69727473          	.insn	4, 0x69727473
  48:	612d7463          	bgeu	s10,s2,650 <__sfp+0x4c>
  4c:	696c                	.insn	2, 0x696c
  4e:	2d206e67          	.insn	4, 0x2d206e67
  52:	746d                	.insn	2, 0x746d
  54:	6e75                	.insn	2, 0x6e75
  56:	3d65                	.insn	2, 0x3d65
  58:	6f72                	.insn	2, 0x6f72
  5a:	74656b63          	bltu	a0,t1,7b0 <_fwalk_sglue+0x4>
  5e:	2d20                	.insn	2, 0x2d20
  60:	696d                	.insn	2, 0x696d
  62:	732d6173          	.insn	4, 0x732d6173
  66:	6570                	.insn	2, 0x6570
  68:	30323d63          	.insn	4, 0x30323d63
  6c:	3931                	.insn	2, 0x3931
  6e:	3231                	.insn	2, 0x3231
  70:	3331                	.insn	2, 0x3331
  72:	2d20                	.insn	2, 0x2d20
  74:	616d                	.insn	2, 0x616d
  76:	6372                	.insn	2, 0x6372
  78:	3d68                	.insn	2, 0x3d68
  7a:	7672                	.insn	2, 0x7672
  7c:	20693233          	.insn	4, 0x20693233
  80:	672d                	.insn	2, 0x672d
  82:	2d20                	.insn	2, 0x2d20
  84:	62646767          	.insn	4, 0x62646767
  88:	2d20                	.insn	2, 0x2d20
  8a:	2d20734f          	.insn	4, 0x2d20734f
  8e:	6666                	.insn	2, 0x6666
  90:	6e75                	.insn	2, 0x6e75
  92:	6f697463          	bgeu	s2,s6,77a <__fp_lock_all+0x6>
  96:	2d6e                	.insn	2, 0x2d6e
  98:	74636573          	.insn	4, 0x74636573
  9c:	6f69                	.insn	2, 0x6f69
  9e:	736e                	.insn	2, 0x736e
  a0:	2d20                	.insn	2, 0x2d20
  a2:	6466                	.insn	2, 0x6466
  a4:	7461                	.insn	2, 0x7461
  a6:	2d61                	.insn	2, 0x2d61
  a8:	74636573          	.insn	4, 0x74636573
  ac:	6f69                	.insn	2, 0x6f69
  ae:	736e                	.insn	2, 0x736e
  b0:	7200                	.insn	2, 0x7200
  b2:	7365                	.insn	2, 0x7365
  b4:	7465                	.insn	2, 0x7465
  b6:	7300                	.insn	2, 0x7300
  b8:	7a69                	.insn	2, 0x7a69
  ba:	5f65                	.insn	2, 0x5f65
  bc:	0074                	.insn	2, 0x0074
  be:	656e                	.insn	2, 0x656e
  c0:	6e694c77          	.insn	4, 0x6e694c77
  c4:	0065                	.insn	2, 0x0065
  c6:	6c727473          	.insn	4, 0x6c727473
  ca:	6e65                	.insn	2, 0x6e65
  cc:	7000                	.insn	2, 0x7000
  ce:	6972                	.insn	2, 0x6972
  d0:	746e                	.insn	2, 0x746e
  d2:	72616843          	.insn	4, 0x72616843
  d6:	7000                	.insn	2, 0x7000
  d8:	6972                	.insn	2, 0x6972
  da:	746e                	.insn	2, 0x746e
  dc:	6e49                	.insn	2, 0x6e49
  de:	0074                	.insn	2, 0x0074
  e0:	6e75                	.insn	2, 0x6e75
  e2:	6e676973          	.insn	4, 0x6e676973
  e6:	6465                	.insn	2, 0x6465
  e8:	6320                	.insn	2, 0x6320
  ea:	6168                	.insn	2, 0x6168
  ec:	0072                	.insn	2, 0x0072
  ee:	5f5f 6f6d 7364      	.insn	6, 0x73646f6d5f5f
  f4:	3369                	.insn	2, 0x3369
  f6:	7300                	.insn	2, 0x7300
  f8:	6f68                	.insn	2, 0x6f68
  fa:	7472                	.insn	2, 0x7472
  fc:	7520                	.insn	2, 0x7520
  fe:	736e                	.insn	2, 0x736e
 100:	6769                	.insn	2, 0x6769
 102:	656e                	.insn	2, 0x656e
 104:	2064                	.insn	2, 0x2064
 106:	6e69                	.insn	2, 0x6e69
 108:	0074                	.insn	2, 0x0074
 10a:	7361                	.insn	2, 0x7361
 10c:	56696963          	bltu	s2,t1,67e <__sfp+0x7a>
 110:	6c61                	.insn	2, 0x6c61
 112:	6c00                	.insn	2, 0x6c00
 114:	20676e6f          	jal	t3,7631a <_end+0x7356e>
 118:	6f6c                	.insn	2, 0x6f6c
 11a:	676e                	.insn	2, 0x676e
 11c:	7520                	.insn	2, 0x7520
 11e:	736e                	.insn	2, 0x736e
 120:	6769                	.insn	2, 0x6769
 122:	656e                	.insn	2, 0x656e
 124:	2064                	.insn	2, 0x2064
 126:	6e69                	.insn	2, 0x6e69
 128:	0074                	.insn	2, 0x0074
 12a:	72727563          	bgeu	tp,t2,854 <_fwalk_sglue+0xa8>
 12e:	6e65                	.insn	2, 0x6e65
 130:	5074                	.insn	2, 0x5074
 132:	7000736f          	jal	t1,7832 <_end+0x4a86>
 136:	6972                	.insn	2, 0x6972
 138:	746e                	.insn	2, 0x746e
 13a:	6f6c6f43          	.insn	4, 0x6f6c6f43
 13e:	4372                	.insn	2, 0x4372
 140:	6168                	.insn	2, 0x6168
 142:	0072                	.insn	2, 0x0072
 144:	6f6c                	.insn	2, 0x6f6c
 146:	676e                	.insn	2, 0x676e
 148:	6c20                	.insn	2, 0x6c20
 14a:	20676e6f          	jal	t3,76350 <_end+0x735a4>
 14e:	6e69                	.insn	2, 0x6e69
 150:	0074                	.insn	2, 0x0074
 152:	7270                	.insn	2, 0x7270
 154:	6e69                	.insn	2, 0x6e69
 156:	4374                	.insn	2, 0x4374
 158:	6168                	.insn	2, 0x6168
 15a:	5072                	.insn	2, 0x5072
 15c:	7300736f          	jal	t1,788c <_end+0x4ae0>
 160:	6f68                	.insn	2, 0x6f68
 162:	7472                	.insn	2, 0x7472
 164:	6920                	.insn	2, 0x6920
 166:	746e                	.insn	2, 0x746e
 168:	6c00                	.insn	2, 0x6c00
 16a:	20676e6f          	jal	t3,76370 <_end+0x735c4>
 16e:	6f64                	.insn	2, 0x6f64
 170:	6275                	.insn	2, 0x6275
 172:	656c                	.insn	2, 0x656c
 174:	5f00                	.insn	2, 0x5f00
 176:	645f 7669 6973      	.insn	6, 0x69737669645f
 17c:	2e2e0033          	.insn	4, 0x2e2e0033
 180:	2f2e2e2f          	.insn	4, 0x2f2e2e2f
 184:	2e2e                	.insn	2, 0x2e2e
 186:	2f2e2e2f          	.insn	4, 0x2f2e2e2f
 18a:	2e2e                	.insn	2, 0x2e2e
 18c:	672f2e2f          	.insn	4, 0x672f2e2f
 190:	6c2f6363          	bltu	t5,sp,856 <_fwalk_sglue+0xaa>
 194:	6269                	.insn	2, 0x6269
 196:	2f636367          	.insn	4, 0x2f636367
 19a:	666e6f63          	bltu	t3,t1,818 <_fwalk_sglue+0x6c>
 19e:	6769                	.insn	2, 0x6769
 1a0:	7369722f          	.insn	4, 0x7369722f
 1a4:	642f7663          	bgeu	t5,sp,7f0 <_fwalk_sglue+0x44>
 1a8:	7669                	.insn	2, 0x7669
 1aa:	532e                	.insn	2, 0x532e
 1ac:	2f00                	.insn	2, 0x2f00
 1ae:	7270                	.insn	2, 0x7270
 1b0:	7669                	.insn	2, 0x7669
 1b2:	7461                	.insn	2, 0x7461
 1b4:	2f65                	.insn	2, 0x2f65
 1b6:	6d74                	.insn	2, 0x6d74
 1b8:	2f70                	.insn	2, 0x2f70
 1ba:	6972                	.insn	2, 0x6972
 1bc:	2d766373          	.insn	4, 0x2d766373
 1c0:	2d756e67          	.insn	4, 0x2d756e67
 1c4:	6f74                	.insn	2, 0x6f74
 1c6:	68636c6f          	jal	s8,3684c <_end+0x33aa0>
 1ca:	6961                	.insn	2, 0x6961
 1cc:	2d6e                	.insn	2, 0x2d6e
 1ce:	3032                	.insn	2, 0x3032
 1d0:	3432                	.insn	2, 0x3432
 1d2:	3031                	.insn	2, 0x3031
 1d4:	3532                	.insn	2, 0x3532
 1d6:	322d                	.insn	2, 0x322d
 1d8:	3336                	.insn	2, 0x3336
 1da:	3631                	.insn	2, 0x3631
 1dc:	682d                	.insn	2, 0x682d
 1de:	6675                	.insn	2, 0x6675
 1e0:	6c62                	.insn	2, 0x6c62
 1e2:	75622f6f          	jal	t5,22938 <_end+0x1fb8c>
 1e6:	6c69                	.insn	2, 0x6c69
 1e8:	2d64                	.insn	2, 0x2d64
 1ea:	2d636367          	.insn	4, 0x2d636367
 1ee:	656e                	.insn	2, 0x656e
 1f0:	62696c77          	.insn	4, 0x62696c77
 1f4:	732d                	.insn	2, 0x732d
 1f6:	6174                	.insn	2, 0x6174
 1f8:	2f326567          	.insn	4, 0x2f326567
 1fc:	6972                	.insn	2, 0x6972
 1fe:	36766373          	.insn	4, 0x36766373
 202:	2d34                	.insn	2, 0x2d34
 204:	6e75                	.insn	2, 0x6e75
 206:	776f6e6b          	.insn	4, 0x776f6e6b
 20a:	2d6e                	.insn	2, 0x2d6e
 20c:	6c65                	.insn	2, 0x6c65
 20e:	2f66                	.insn	2, 0x2f66
 210:	7672                	.insn	2, 0x7672
 212:	2f693233          	.insn	4, 0x2f693233
 216:	6c69                	.insn	2, 0x6c69
 218:	3370                	.insn	2, 0x3370
 21a:	2f32                	.insn	2, 0x2f32
 21c:	696c                	.insn	2, 0x696c
 21e:	6762                	.insn	2, 0x6762
 220:	47006363          	bltu	zero,a6,686 <__sfp+0x82>
 224:	554e                	.insn	2, 0x554e
 226:	4120                	.insn	2, 0x4120
 228:	2e322053          	.insn	4, 0x2e322053
 22c:	3334                	.insn	2, 0x3334
 22e:	312e                	.insn	2, 0x312e
 230:	5f00                	.insn	2, 0x5f00
 232:	685f 6469 6564      	.insn	6, 0x65646469685f
 238:	5f6e                	.insn	2, 0x5f6e
 23a:	5f5f 6475 7669      	.insn	6, 0x766964755f5f
 240:	00336973          	.insn	4, 0x00336973
 244:	5f5f 6d75 646f      	.insn	6, 0x646f6d755f5f
 24a:	00336973          	.insn	4, 0x00336973

Disassembly of section .debug_line_str:

00000000 <.debug_line_str>:
   0:	7566                	.insn	2, 0x7566
   2:	2d6e                	.insn	2, 0x2d6e
   4:	6574                	.insn	2, 0x6574
   6:	7478                	.insn	2, 0x7478
   8:	632e                	.insn	2, 0x632e
   a:	2f00                	.insn	2, 0x2f00
   c:	7355                	.insn	2, 0x7355
   e:	7265                	.insn	2, 0x7265
  10:	616e2f73          	.insn	4, 0x616e2f73
  14:	6574                	.insn	2, 0x6574
  16:	6e676177          	.insn	4, 0x6e676177
  1a:	7265                	.insn	2, 0x7265
  1c:	6863532f          	.insn	4, 0x6863532f
  20:	536c6f6f          	jal	t5,c6556 <_end+0xc37aa>
  24:	7574                	.insn	2, 0x7574
  26:	6666                	.insn	2, 0x6666
  28:	4543452f          	.insn	4, 0x4543452f
  2c:	325f 3738 502f      	.insn	6, 0x502f3738325f
  32:	6f72                	.insn	2, 0x6f72
  34:	656a                	.insn	2, 0x656a
  36:	662f7463          	bgeu	t5,sp,69e <__sfp+0x9a>
  3a:	6e75                	.insn	2, 0x6e75
  3c:	742d                	.insn	2, 0x742d
  3e:	7865                	.insn	2, 0x7865
  40:	0074                	.insn	2, 0x0074
  42:	7270                	.insn	2, 0x7270
  44:	6e69                	.insn	2, 0x6e69
  46:	2e74                	.insn	2, 0x2e74
  48:	0068                	.insn	2, 0x0068
  4a:	7270                	.insn	2, 0x7270
  4c:	6e69                	.insn	2, 0x6e69
  4e:	2e74                	.insn	2, 0x2e74
  50:	6f2f0063          	beq	t5,s2,730 <__sfp+0x12c>
  54:	7470                	.insn	2, 0x7470
  56:	6d6f682f          	.insn	4, 0x6d6f682f
  5a:	6265                	.insn	2, 0x6265
  5c:	6572                	.insn	2, 0x6572
  5e:	65432f77          	.insn	4, 0x65432f77
  62:	6c6c                	.insn	2, 0x6c6c
  64:	7261                	.insn	2, 0x7261
  66:	7369722f          	.insn	4, 0x7369722f
  6a:	672d7663          	bgeu	s10,s2,6d6 <__sfp+0xd2>
  6e:	756e                	.insn	2, 0x756e
  70:	742d                	.insn	2, 0x742d
  72:	636c6f6f          	jal	t5,c66a8 <_end+0xc38fc>
  76:	6168                	.insn	2, 0x6168
  78:	6e69                	.insn	2, 0x6e69
  7a:	69616d2f          	.insn	4, 0x69616d2f
  7e:	2f6e                	.insn	2, 0x2f6e
  80:	696c                	.insn	2, 0x696c
  82:	2f62                	.insn	2, 0x2f62
  84:	2f636367          	.insn	4, 0x2f636367
  88:	6972                	.insn	2, 0x6972
  8a:	36766373          	.insn	4, 0x36766373
  8e:	2d34                	.insn	2, 0x2d34
  90:	6e75                	.insn	2, 0x6e75
  92:	776f6e6b          	.insn	4, 0x776f6e6b
  96:	2d6e                	.insn	2, 0x2d6e
  98:	6c65                	.insn	2, 0x6c65
  9a:	2f66                	.insn	2, 0x2f66
  9c:	3431                	.insn	2, 0x3431
  9e:	322e                	.insn	2, 0x322e
  a0:	302e                	.insn	2, 0x302e
  a2:	636e692f          	.insn	4, 0x636e692f
  a6:	756c                	.insn	2, 0x756c
  a8:	6564                	.insn	2, 0x6564
  aa:	2f00                	.insn	2, 0x2f00
  ac:	2f74706f          	j	47ba2 <_end+0x44df6>
  b0:	6f68                	.insn	2, 0x6f68
  b2:	656d                	.insn	2, 0x656d
  b4:	7262                	.insn	2, 0x7262
  b6:	7765                	.insn	2, 0x7765
  b8:	6c65432f          	.insn	4, 0x6c65432f
  bc:	616c                	.insn	2, 0x616c
  be:	2f72                	.insn	2, 0x2f72
  c0:	6972                	.insn	2, 0x6972
  c2:	2d766373          	.insn	4, 0x2d766373
  c6:	2d756e67          	.insn	4, 0x2d756e67
  ca:	6f74                	.insn	2, 0x6f74
  cc:	68636c6f          	jal	s8,36752 <_end+0x339a6>
  d0:	6961                	.insn	2, 0x6961
  d2:	2f6e                	.insn	2, 0x2f6e
  d4:	616d                	.insn	2, 0x616d
  d6:	6e69                	.insn	2, 0x6e69
  d8:	7369722f          	.insn	4, 0x7369722f
  dc:	34367663          	bgeu	a2,gp,428 <cleanup_stdio+0x24>
  e0:	752d                	.insn	2, 0x752d
  e2:	6b6e                	.insn	2, 0x6b6e
  e4:	6f6e                	.insn	2, 0x6f6e
  e6:	652d6e77          	.insn	4, 0x652d6e77
  ea:	666c                	.insn	2, 0x666c
  ec:	636e692f          	.insn	4, 0x636e692f
  f0:	756c                	.insn	2, 0x756c
  f2:	6564                	.insn	2, 0x6564
  f4:	7300                	.insn	2, 0x7300
  f6:	6474                	.insn	2, 0x6474
  f8:	6564                	.insn	2, 0x6564
  fa:	2e66                	.insn	2, 0x2e66
  fc:	0068                	.insn	2, 0x0068
  fe:	69727473          	.insn	4, 0x69727473
 102:	676e                	.insn	2, 0x676e
 104:	682e                	.insn	2, 0x682e
 106:	2f00                	.insn	2, 0x2f00
 108:	7270                	.insn	2, 0x7270
 10a:	7669                	.insn	2, 0x7669
 10c:	7461                	.insn	2, 0x7461
 10e:	2f65                	.insn	2, 0x2f65
 110:	6d74                	.insn	2, 0x6d74
 112:	2f70                	.insn	2, 0x2f70
 114:	6972                	.insn	2, 0x6972
 116:	2d766373          	.insn	4, 0x2d766373
 11a:	2d756e67          	.insn	4, 0x2d756e67
 11e:	6f74                	.insn	2, 0x6f74
 120:	68636c6f          	jal	s8,367a6 <_end+0x339fa>
 124:	6961                	.insn	2, 0x6961
 126:	2d6e                	.insn	2, 0x2d6e
 128:	3032                	.insn	2, 0x3032
 12a:	3432                	.insn	2, 0x3432
 12c:	3031                	.insn	2, 0x3031
 12e:	3532                	.insn	2, 0x3532
 130:	322d                	.insn	2, 0x322d
 132:	3336                	.insn	2, 0x3336
 134:	3631                	.insn	2, 0x3631
 136:	682d                	.insn	2, 0x682d
 138:	6675                	.insn	2, 0x6675
 13a:	6c62                	.insn	2, 0x6c62
 13c:	75622f6f          	jal	t5,22892 <_end+0x1fae6>
 140:	6c69                	.insn	2, 0x6c69
 142:	2d64                	.insn	2, 0x2d64
 144:	2d636367          	.insn	4, 0x2d636367
 148:	656e                	.insn	2, 0x656e
 14a:	62696c77          	.insn	4, 0x62696c77
 14e:	732d                	.insn	2, 0x732d
 150:	6174                	.insn	2, 0x6174
 152:	2f326567          	.insn	4, 0x2f326567
 156:	6972                	.insn	2, 0x6972
 158:	36766373          	.insn	4, 0x36766373
 15c:	2d34                	.insn	2, 0x2d34
 15e:	6e75                	.insn	2, 0x6e75
 160:	776f6e6b          	.insn	4, 0x776f6e6b
 164:	2d6e                	.insn	2, 0x2d6e
 166:	6c65                	.insn	2, 0x6c65
 168:	2f66                	.insn	2, 0x2f66
 16a:	7672                	.insn	2, 0x7672
 16c:	2f693233          	.insn	4, 0x2f693233
 170:	6c69                	.insn	2, 0x6c69
 172:	3370                	.insn	2, 0x3370
 174:	2f32                	.insn	2, 0x2f32
 176:	696c                	.insn	2, 0x696c
 178:	6762                	.insn	2, 0x6762
 17a:	2e006363          	bltu	zero,zero,460 <cleanup_stdio+0x5c>
 17e:	2f2e                	.insn	2, 0x2f2e
 180:	2e2e                	.insn	2, 0x2e2e
 182:	2f2e2e2f          	.insn	4, 0x2f2e2e2f
 186:	2e2e                	.insn	2, 0x2e2e
 188:	2f2e2e2f          	.insn	4, 0x2f2e2e2f
 18c:	2f2e                	.insn	2, 0x2f2e
 18e:	2f636367          	.insn	4, 0x2f636367
 192:	696c                	.insn	2, 0x696c
 194:	6762                	.insn	2, 0x6762
 196:	632f6363          	bltu	t5,s2,7bc <_fwalk_sglue+0x10>
 19a:	69666e6f          	jal	t3,66830 <_end+0x63a84>
 19e:	69722f67          	.insn	4, 0x69722f67
 1a2:	00766373          	.insn	4, 0x00766373
 1a6:	6964                	.insn	2, 0x6964
 1a8:	2e76                	.insn	2, 0x2e76
 1aa:	Address 0x1aa is out of bounds.


Disassembly of section .debug_frame:

00000000 <.debug_frame>:
   0:	000c                	.insn	2, 0x000c
   2:	0000                	.insn	2, 0x
   4:	ffff                	.insn	2, 0xffff
   6:	ffff                	.insn	2, 0xffff
   8:	7c010003          	lb	zero,1984(sp)
   c:	0c01                	.insn	2, 0x0c01
   e:	0002                	.insn	2, 0x0002
  10:	0018                	.insn	2, 0x0018
  12:	0000                	.insn	2, 0x
  14:	0000                	.insn	2, 0x
  16:	0000                	.insn	2, 0x
  18:	00ec                	.insn	2, 0x00ec
  1a:	0000                	.insn	2, 0x
  1c:	0050                	.insn	2, 0x0050
  1e:	0000                	.insn	2, 0x
  20:	0e44                	.insn	2, 0x0e44
  22:	5010                	.insn	2, 0x5010
  24:	0288                	.insn	2, 0x0288
  26:	0389                	.insn	2, 0x0389
  28:	0492                	.insn	2, 0x0492
  2a:	0181                	.insn	2, 0x0181
  2c:	000c                	.insn	2, 0x000c
  2e:	0000                	.insn	2, 0x
  30:	ffff                	.insn	2, 0xffff
  32:	ffff                	.insn	2, 0xffff
  34:	7c010003          	lb	zero,1984(sp)
  38:	0c01                	.insn	2, 0x0c01
  3a:	0002                	.insn	2, 0x0002
  3c:	000c                	.insn	2, 0x000c
  3e:	0000                	.insn	2, 0x
  40:	002c                	.insn	2, 0x002c
  42:	0000                	.insn	2, 0x
  44:	013c                	.insn	2, 0x013c
  46:	0000                	.insn	2, 0x
  48:	0020                	.insn	2, 0x0020
  4a:	0000                	.insn	2, 0x
  4c:	0024                	.insn	2, 0x0024
  4e:	0000                	.insn	2, 0x
  50:	002c                	.insn	2, 0x002c
  52:	0000                	.insn	2, 0x
  54:	015c                	.insn	2, 0x015c
  56:	0000                	.insn	2, 0x
  58:	0044                	.insn	2, 0x0044
  5a:	0000                	.insn	2, 0x
  5c:	0e44                	.insn	2, 0x0e44
  5e:	4410                	.insn	2, 0x4410
  60:	0389                	.insn	2, 0x0389
  62:	8848                	.insn	2, 0x8848
  64:	4c02                	.insn	2, 0x4c02
  66:	0181                	.insn	2, 0x0181
  68:	c158                	.insn	2, 0xc158
  6a:	c844                	.insn	2, 0xc844
  6c:	c944                	.insn	2, 0xc944
  6e:	0e44                	.insn	2, 0x0e44
  70:	0000                	.insn	2, 0x
  72:	0000                	.insn	2, 0x
  74:	000c                	.insn	2, 0x000c
  76:	0000                	.insn	2, 0x
  78:	002c                	.insn	2, 0x002c
  7a:	0000                	.insn	2, 0x
  7c:	01a0                	.insn	2, 0x01a0
  7e:	0000                	.insn	2, 0x
  80:	0010                	.insn	2, 0x0010
  82:	0000                	.insn	2, 0x
  84:	0028                	.insn	2, 0x0028
  86:	0000                	.insn	2, 0x
  88:	002c                	.insn	2, 0x002c
  8a:	0000                	.insn	2, 0x
  8c:	01b0                	.insn	2, 0x01b0
  8e:	0000                	.insn	2, 0x
  90:	0064                	.insn	2, 0x0064
  92:	0000                	.insn	2, 0x
  94:	0e44                	.insn	2, 0x0e44
  96:	5010                	.insn	2, 0x5010
  98:	0288                	.insn	2, 0x0288
  9a:	0389                	.insn	2, 0x0389
  9c:	0492                	.insn	2, 0x0492
  9e:	0181                	.insn	2, 0x0181
  a0:	0a60                	.insn	2, 0x0a60
  a2:	44c1                	.insn	2, 0x44c1
  a4:	44c8                	.insn	2, 0x44c8
  a6:	44c9                	.insn	2, 0x44c9
  a8:	44d2                	.insn	2, 0x44d2
  aa:	000e                	.insn	2, 0x000e
  ac:	0b44                	.insn	2, 0x0b44
  ae:	0000                	.insn	2, 0x
  b0:	0020                	.insn	2, 0x0020
  b2:	0000                	.insn	2, 0x
  b4:	002c                	.insn	2, 0x002c
  b6:	0000                	.insn	2, 0x
  b8:	0214                	.insn	2, 0x0214
  ba:	0000                	.insn	2, 0x
  bc:	0088                	.insn	2, 0x0088
  be:	0000                	.insn	2, 0x
  c0:	0e44                	.insn	2, 0x0e44
  c2:	4c10                	.insn	2, 0x4c10
  c4:	0288                	.insn	2, 0x0288
  c6:	0389                	.insn	2, 0x0389
  c8:	0181                	.insn	2, 0x0181
  ca:	5802                	.insn	2, 0x5802
  cc:	44c8                	.insn	2, 0x44c8
  ce:	48c1                	.insn	2, 0x48c1
  d0:	4cc9                	.insn	2, 0x4cc9
  d2:	000e                	.insn	2, 0x000e
  d4:	0024                	.insn	2, 0x0024
  d6:	0000                	.insn	2, 0x
  d8:	002c                	.insn	2, 0x002c
  da:	0000                	.insn	2, 0x
  dc:	029c                	.insn	2, 0x029c
  de:	0000                	.insn	2, 0x
  e0:	0048                	.insn	2, 0x0048
  e2:	0000                	.insn	2, 0x
  e4:	0e44                	.insn	2, 0x0e44
  e6:	4410                	.insn	2, 0x4410
  e8:	0389                	.insn	2, 0x0389
  ea:	8848                	.insn	2, 0x8848
  ec:	4c02                	.insn	2, 0x4c02
  ee:	0181                	.insn	2, 0x0181
  f0:	c15c                	.insn	2, 0xc15c
  f2:	c844                	.insn	2, 0xc844
  f4:	c944                	.insn	2, 0xc944
  f6:	0e44                	.insn	2, 0x0e44
  f8:	0000                	.insn	2, 0x
  fa:	0000                	.insn	2, 0x
  fc:	000c                	.insn	2, 0x000c
  fe:	0000                	.insn	2, 0x
 100:	002c                	.insn	2, 0x002c
 102:	0000                	.insn	2, 0x
 104:	02e4                	.insn	2, 0x02e4
 106:	0000                	.insn	2, 0x
 108:	000c                	.insn	2, 0x000c
	...
